Archive member included because of file (symbol)

d:/devkitPro/PAlib/lib\libpa9.a(PA.o)
                              TextManager.o (PA_SetBrightness)
d:/devkitPro/PAlib/lib\libpa9.a(PA_BgEasy.o)
                              UIManager.o (PA_EasyBgScrollY)
d:/devkitPro/PAlib/lib\libpa9.a(PA_BgLargeMap.o)
                              d:/devkitPro/PAlib/lib\libpa9.a(PA_BgEasy.o) (PA_InfLargeScrollXN)
d:/devkitPro/PAlib/lib\libpa9.a(PA_BgTiles.o)
                              DuelStage.o (PA_BgInfo)
d:/devkitPro/PAlib/lib\libpa9.a(PA_Draw.o)
                              UIManager.o (PA_DrawBg)
d:/devkitPro/PAlib/lib\libpa9.a(PA_Draw8bit.o)
                              UIManager.o (PA_Init8bitBg)
d:/devkitPro/PAlib/lib\libpa9.a(PA_Error.o)
                              d:/devkitPro/PAlib/lib\libpa9.a(PA_BgTiles.o) (PA_Error)
d:/devkitPro/PAlib/lib\libpa9.a(PA_Gif.o)
                              UIManager.o (DecodeGif)
d:/devkitPro/PAlib/lib\libpa9.a(PA_Inits.o)
                              d:/devkitPro/PAlib/lib\libpa9.a(PA_Error.o) (PA_Init2D)
d:/devkitPro/PAlib/lib\libpa9.a(PA_Interrupt.o)
                              d:/devkitPro/PAlib/lib\libpa9.a(PA_Inits.o) (PA_VBLCountersReset)
d:/devkitPro/PAlib/lib\libpa9.a(PA_Keys.o)
                              d:/devkitPro/PAlib/lib\libpa9.a(PA_Interrupt.o) (PA_UpdateStylus)
d:/devkitPro/PAlib/lib\libpa9.a(PA_Math.o)
                              Door.o (RandomValue)
d:/devkitPro/PAlib/lib\libpa9.a(PA_NewBg.o)
                              DuelStage.o (PA_LoadBackground)
d:/devkitPro/PAlib/lib\libpa9.a(PA_Palette.o)
                              d:/devkitPro/PAlib/lib\libpa9.a(PA_BgEasy.o) (PA_LoadBgPalN)
d:/devkitPro/PAlib/lib\libpa9.a(PA_RTC.o)
                              d:/devkitPro/PAlib/lib\libpa9.a(PA_Inits.o) (PA_UpdateUserInfo)
d:/devkitPro/PAlib/lib\libpa9.a(PA_Reco.o)
                              d:/devkitPro/PAlib/lib\libpa9.a(PA_Inits.o) (PA_UseGraffiti)
d:/devkitPro/PAlib/lib\libpa9.a(PA_Sprite.o)
                              UIManager.o (obj_per_gfx)
d:/devkitPro/PAlib/lib\libpa9.a(PA_SpriteAnim.o)
                              DuelStage.o (PA_StartSpriteAnimEx)
d:/devkitPro/PAlib/lib\libpa9.a(PA_Stuff.o)
                              d:/devkitPro/PAlib/lib\libpa9.a(PA_BgTiles.o) (PA_SetVideoMode)
d:/devkitPro/PAlib/lib\libpa9.a(PA_Text.o)
                              d:/devkitPro/PAlib/lib\libpa9.a(PA_Error.o) (PA_OutputSimpleText)
d:/devkitPro/PAlib/lib\libpa9.a(PA_Text8bit.o)
                              d:/devkitPro/PAlib/lib\libpa9.a(PA_NewBg.o) (bit8_tiles)
d:/devkitPro/PAlib/lib\libpa9.a(PA_TextBits.o)
                              d:/devkitPro/PAlib/lib\libpa9.a(PA_Text8bit.o) (PA_LetterPos)
d:/devkitPro/PAlib/lib\libpa9.a(dgif_lib.o)
                              d:/devkitPro/PAlib/lib\libpa9.a(PA_Gif.o) (DGifGetLine)
d:/devkitPro/PAlib/lib\libpa9.a(gif_err.o)
                              d:/devkitPro/PAlib/lib\libpa9.a(dgif_lib.o) (_GifError)
d:/devkitPro/PAlib/lib\libpa9.a(gifalloc.o)
                              d:/devkitPro/PAlib/lib\libpa9.a(dgif_lib.o) (FreeExtension)
d:/devkitPro/PAlib/lib\libpa9.a(PA_TiledFont.o)
                              d:/devkitPro/PAlib/lib\libpa9.a(PA_Text.o) (PA_TiledFont)
d:/devkitPro/PAlib/lib\libpa9.a(PA_BmpFont0.o)
                              d:/devkitPro/PAlib/lib\libpa9.a(PA_Inits.o) (PA_BmpFont0)
d:/devkitPro/PAlib/lib\libpa9.a(PA_BmpFont1.o)
                              d:/devkitPro/PAlib/lib\libpa9.a(PA_Inits.o) (PA_BmpFont1)
d:/devkitPro/PAlib/lib\libpa9.a(PA_BmpFont2.o)
                              d:/devkitPro/PAlib/lib\libpa9.a(PA_Inits.o) (PA_BmpFont2)
d:/devkitPro/PAlib/lib\libpa9.a(PA_BmpFont3.o)
                              d:/devkitPro/PAlib/lib\libpa9.a(PA_Inits.o) (PA_BmpFont3)
d:/devkitPro/PAlib/lib\libpa9.a(PA_BmpFont4.o)
                              d:/devkitPro/PAlib/lib\libpa9.a(PA_Inits.o) (PA_BmpFont4)
d:/devkitPro/PAlib/lib\libpa9.a(PA_TiledFont_Map.bin.o)
                              d:/devkitPro/PAlib/lib\libpa9.a(PA_Inits.o) (PA_TiledFont_Map)
d:/devkitPro/PAlib/lib\libpa9.a(PA_TiledFont_Pal.bin.o)
                              d:/devkitPro/PAlib/lib\libpa9.a(PA_Inits.o) (PA_TiledFont_Pal)
d:/devkitPro/PAlib/lib\libpa9.a(PA_TiledFont_Tiles.bin.o)
                              d:/devkitPro/PAlib/lib\libpa9.a(PA_Inits.o) (PA_TiledFont_Tiles)
d:/devkitPro/PAlib/lib\libpa9.a(PA_BmpFont0_Map.bin.o)
                              d:/devkitPro/PAlib/lib\libpa9.a(PA_TextBits.o) (PA_BmpFont0_Map)
d:/devkitPro/PAlib/lib\libpa9.a(PA_BmpFont0_Sizes.bin.o)
                              d:/devkitPro/PAlib/lib\libpa9.a(PA_TextBits.o) (PA_BmpFont0_Sizes)
d:/devkitPro/PAlib/lib\libpa9.a(PA_BmpFont0_Tiles.bin.o)
                              d:/devkitPro/PAlib/lib\libpa9.a(PA_Inits.o) (PA_BmpFont0_Tiles_size)
d:/devkitPro/PAlib/lib\libpa9.a(PA_BmpFont1_Map.bin.o)
                              d:/devkitPro/PAlib/lib\libpa9.a(PA_TextBits.o) (PA_BmpFont1_Map)
d:/devkitPro/PAlib/lib\libpa9.a(PA_BmpFont1_Sizes.bin.o)
                              d:/devkitPro/PAlib/lib\libpa9.a(PA_TextBits.o) (PA_BmpFont1_Sizes)
d:/devkitPro/PAlib/lib\libpa9.a(PA_BmpFont1_Tiles.bin.o)
                              d:/devkitPro/PAlib/lib\libpa9.a(PA_Inits.o) (PA_BmpFont1_Tiles_size)
d:/devkitPro/PAlib/lib\libpa9.a(PA_BmpFont2_Map.bin.o)
                              d:/devkitPro/PAlib/lib\libpa9.a(PA_TextBits.o) (PA_BmpFont2_Map)
d:/devkitPro/PAlib/lib\libpa9.a(PA_BmpFont2_Sizes.bin.o)
                              d:/devkitPro/PAlib/lib\libpa9.a(PA_TextBits.o) (PA_BmpFont2_Sizes)
d:/devkitPro/PAlib/lib\libpa9.a(PA_BmpFont2_Tiles.bin.o)
                              d:/devkitPro/PAlib/lib\libpa9.a(PA_Inits.o) (PA_BmpFont2_Tiles_size)
d:/devkitPro/PAlib/lib\libpa9.a(PA_BmpFont3_Map.bin.o)
                              d:/devkitPro/PAlib/lib\libpa9.a(PA_TextBits.o) (PA_BmpFont3_Map)
d:/devkitPro/PAlib/lib\libpa9.a(PA_BmpFont3_Sizes.bin.o)
                              d:/devkitPro/PAlib/lib\libpa9.a(PA_TextBits.o) (PA_BmpFont3_Sizes)
d:/devkitPro/PAlib/lib\libpa9.a(PA_BmpFont3_Tiles.bin.o)
                              d:/devkitPro/PAlib/lib\libpa9.a(PA_Inits.o) (PA_BmpFont3_Tiles_size)
d:/devkitPro/PAlib/lib\libpa9.a(PA_BmpFont4_Map.bin.o)
                              d:/devkitPro/PAlib/lib\libpa9.a(PA_TextBits.o) (PA_BmpFont4_Map)
d:/devkitPro/PAlib/lib\libpa9.a(PA_BmpFont4_Sizes.bin.o)
                              d:/devkitPro/PAlib/lib\libpa9.a(PA_TextBits.o) (PA_BmpFont4_Sizes)
d:/devkitPro/PAlib/lib\libpa9.a(PA_BmpFont4_Tiles.bin.o)
                              d:/devkitPro/PAlib/lib\libpa9.a(PA_Inits.o) (PA_BmpFont4_Tiles_size)
d:/devkitPro/PAlib/lib\libpa9.a(PA_16c.o)
                              d:/devkitPro/PAlib/lib\libpa9.a(PA_NewBg.o) (c16_tiles)
d:/devkitPro/PAlib/lib\libpa9.a(PA_BgRot.o)
                              d:/devkitPro/PAlib/lib\libpa9.a(PA_NewBg.o) (PA_LoadRotBgMap)
d:/devkitPro/PAlib/lib\libpa9.a(PA_Fifo.o)
                              d:/devkitPro/PAlib/lib\libpa9.a(PA_Inits.o) (PA_InitFifo)
d:/devkitPro/PAlib/lib\libpa9.a(PA_Keyboard.o)
                              d:/devkitPro/PAlib/lib\libpa9.a(PA_NewBg.o) (PA_Keyboard_Struct)
d:/devkitPro/PAlib/lib\libpa9.a(PA_PaletteEx.o)
                              d:/devkitPro/PAlib/lib\libpa9.a(PA_Text.o) (PA_SetBgPalNCol)
d:/devkitPro/PAlib/lib\libpa9.a(keyboard.map.o)
                              d:/devkitPro/PAlib/lib\libpa9.a(PA_Keyboard.o) (keyboard_Map)
d:/devkitPro/PAlib/lib\libpa9.a(keyboard.pal.o)
                              d:/devkitPro/PAlib/lib\libpa9.a(PA_Keyboard.o) (keyboard_Palette)
d:/devkitPro/PAlib/lib\libpa9.a(keyboard.raw.o)
                              d:/devkitPro/PAlib/lib\libpa9.a(PA_Keyboard.o) (keyboard_Tiles)
d:/devkitPro/libnds/lib\libnds9.a(keys.o)
                              d:/devkitPro/PAlib/lib\libpa9.a(PA_Keys.o) (scanKeys)
d:/devkitPro/libnds/lib\libnds9.a(system.o)
                              d:/devkitPro/PAlib/lib\libpa9.a(PA_Inits.o) (powerOn)
d:/devkitPro/libnds/lib\libnds9.a(touch.o)
                              d:/devkitPro/PAlib/lib\libpa9.a(PA_Keys.o) (touchRead)
d:/devkitPro/libnds/lib\libnds9.a(video.o)
                              d:/devkitPro/PAlib/lib\libpa9.a(PA_Inits.o) (vramSetMainBanks)
d:/devkitPro/libnds/lib\libnds9.a(initSystem.o)
                              d:/devkitpro/devkitarm/bin/../lib/gcc/arm-eabi/4.4.2/../../../../arm-eabi/lib/thumb/ds_arm9_crt0.o (initSystem)
d:/devkitPro/libnds/lib\libnds9.a(fifosystem.o)
                              d:/devkitPro/PAlib/lib\libpa9.a(PA.o) (fifoSendValue32)
d:/devkitPro/libnds/lib\libnds9.a(interrupts.o)
                              d:/devkitPro/PAlib/lib\libpa9.a(PA.o) (irqSet)
d:/devkitPro/libnds/lib\libnds9.a(libnds_exit.o)
                              d:/devkitpro/devkitarm/bin/../lib/gcc/arm-eabi/4.4.2/../../../../arm-eabi/lib/thumb/ds_arm9_crt0.o (__libnds_exit)
d:/devkitPro/libnds/lib\libnds9.a(dcache.o)
                              d:/devkitPro/PAlib/lib\libpa9.a(PA_BgTiles.o) (DC_FlushRange)
d:/devkitPro/libnds/lib\libnds9.a(mpu_setup.o)
                              d:/devkitpro/devkitarm/bin/../lib/gcc/arm-eabi/4.4.2/../../../../arm-eabi/lib/thumb/ds_arm9_crt0.o (__libnds_mpu_setup)
d:/devkitPro/libnds/lib\libnds9.a(biosCalls.o)
                              d:/devkitPro/PAlib/lib\libpa9.a(PA.o) (swiDelay)
d:/devkitPro/libnds/lib\libnds9.a(interruptDispatcher.o)
                              d:/devkitPro/libnds/lib\libnds9.a(interrupts.o) (IntrMain)
d:/devkitPro/libnds/lib\libmm9.a(mm_comms.o)
                              Game.o (mmStart)
d:/devkitPro/libnds/lib\libmm9.a(mm_main9.o)
                              d:/devkitPro/libnds/lib\libmm9.a(mm_comms.o) (mmCallback)
d:/devkitPro/libnds/lib\libmm9.a(mm_memory.o)
                              Game.o (mmLoad)
d:/devkitPro/libnds/lib\libmm9.a(mm_soundbank.o)
                              d:/devkitPro/libnds/lib\libmm9.a(mm_main9.o) (mmSoundBankInMemory)
d:/devkitPro/libnds/lib\libmm9.a(mm_flusher.o)
                              d:/devkitPro/libnds/lib\libmm9.a(mm_memory.o) (mmFlushBank)
d:/devkitpro/devkitarm/bin/../lib/gcc/arm-eabi/4.4.2/../../../../arm-eabi/lib/thumb\libstdc++.a(atexit_arm.o)
                              main.o (__aeabi_atexit)
d:/devkitpro/devkitarm/bin/../lib/gcc/arm-eabi/4.4.2/thumb\libgcc.a(_udivsi3.o)
                              Door.o (__aeabi_uidivmod)
d:/devkitpro/devkitarm/bin/../lib/gcc/arm-eabi/4.4.2/thumb\libgcc.a(_divsi3.o)
                              d:/devkitPro/PAlib/lib\libpa9.a(PA_Keys.o) (__aeabi_idiv)
d:/devkitpro/devkitarm/bin/../lib/gcc/arm-eabi/4.4.2/thumb\libgcc.a(_dvmd_tls.o)
                              d:/devkitpro/devkitarm/bin/../lib/gcc/arm-eabi/4.4.2/thumb\libgcc.a(_udivsi3.o) (__div0)
d:/devkitpro/devkitarm/bin/../lib/gcc/arm-eabi/4.4.2/thumb\libgcc.a(_arm_addsubdf3.o)
                              d:/devkitPro/PAlib/lib\libpa9.a(PA_Text.o) (__aeabi_dsub)
d:/devkitpro/devkitarm/bin/../lib/gcc/arm-eabi/4.4.2/thumb\libgcc.a(_arm_muldivdf3.o)
                              utils.o (__aeabi_dmul)
d:/devkitpro/devkitarm/bin/../lib/gcc/arm-eabi/4.4.2/thumb\libgcc.a(_arm_cmpdf2.o)
                              d:/devkitPro/PAlib/lib\libpa9.a(PA_Text.o) (__aeabi_dcmplt)
d:/devkitpro/devkitarm/bin/../lib/gcc/arm-eabi/4.4.2/thumb\libgcc.a(_arm_fixdfsi.o)
                              utils.o (__aeabi_d2iz)
d:/devkitpro/devkitarm/bin/../lib/gcc/arm-eabi/4.4.2/thumb\libgcc.a(_arm_addsubsf3.o)
                              d:/devkitPro/PAlib/lib\libpa9.a(PA_Gif.o) (__aeabi_i2f)
d:/devkitpro/devkitarm/bin/../lib/gcc/arm-eabi/4.4.2/thumb\libgcc.a(_arm_muldivsf3.o)
                              d:/devkitPro/PAlib/lib\libpa9.a(PA_Gif.o) (__aeabi_fmul)
d:/devkitpro/devkitarm/bin/../lib/gcc/arm-eabi/4.4.2/thumb\libgcc.a(_muldi3.o)
                              d:/devkitPro/PAlib/lib\libpa9.a(PA_Math.o) (__aeabi_lmul)
d:/devkitpro/devkitarm/bin/../lib/gcc/arm-eabi/4.4.2/../../../../arm-eabi/lib/thumb\libg.a(lib_a-calloc.o)
                              d:/devkitPro/PAlib/lib\libpa9.a(gifalloc.o) (calloc)
d:/devkitpro/devkitarm/bin/../lib/gcc/arm-eabi/4.4.2/../../../../arm-eabi/lib/thumb\libg.a(lib_a-callocr.o)
                              d:/devkitpro/devkitarm/bin/../lib/gcc/arm-eabi/4.4.2/../../../../arm-eabi/lib/thumb\libg.a(lib_a-calloc.o) (_calloc_r)
d:/devkitpro/devkitarm/bin/../lib/gcc/arm-eabi/4.4.2/../../../../arm-eabi/lib/thumb\libg.a(lib_a-cxa_atexit.o)
                              d:/devkitpro/devkitarm/bin/../lib/gcc/arm-eabi/4.4.2/../../../../arm-eabi/lib/thumb\libstdc++.a(atexit_arm.o) (__cxa_atexit)
d:/devkitpro/devkitarm/bin/../lib/gcc/arm-eabi/4.4.2/../../../../arm-eabi/lib/thumb\libg.a(lib_a-fclose.o)
                              d:/devkitPro/PAlib/lib\libpa9.a(dgif_lib.o) (fclose)
d:/devkitpro/devkitarm/bin/../lib/gcc/arm-eabi/4.4.2/../../../../arm-eabi/lib/thumb\libg.a(lib_a-fflush.o)
                              d:/devkitpro/devkitarm/bin/../lib/gcc/arm-eabi/4.4.2/../../../../arm-eabi/lib/thumb\libg.a(lib_a-fclose.o) (_fflush_r)
d:/devkitpro/devkitarm/bin/../lib/gcc/arm-eabi/4.4.2/../../../../arm-eabi/lib/thumb\libg.a(lib_a-findfp.o)
                              d:/devkitpro/devkitarm/bin/../lib/gcc/arm-eabi/4.4.2/../../../../arm-eabi/lib/thumb\libg.a(lib_a-fclose.o) (__sfp_lock_acquire)
d:/devkitpro/devkitarm/bin/../lib/gcc/arm-eabi/4.4.2/../../../../arm-eabi/lib/thumb\libg.a(lib_a-fopen.o)
                              d:/devkitPro/libnds/lib\libmm9.a(mm_main9.o) (fopen)
d:/devkitpro/devkitarm/bin/../lib/gcc/arm-eabi/4.4.2/../../../../arm-eabi/lib/thumb\libg.a(lib_a-fprintf.o)
                              d:/devkitPro/PAlib/lib\libpa9.a(gif_err.o) (fprintf)
d:/devkitpro/devkitarm/bin/../lib/gcc/arm-eabi/4.4.2/../../../../arm-eabi/lib/thumb\libg.a(lib_a-fread.o)
                              d:/devkitPro/PAlib/lib\libpa9.a(dgif_lib.o) (fread)
d:/devkitpro/devkitarm/bin/../lib/gcc/arm-eabi/4.4.2/../../../../arm-eabi/lib/thumb\libg.a(lib_a-freer.o)
                              d:/devkitpro/devkitarm/bin/../lib/gcc/arm-eabi/4.4.2/../../../../arm-eabi/lib/thumb\libg.a(lib_a-fclose.o) (_free_r)
d:/devkitpro/devkitarm/bin/../lib/gcc/arm-eabi/4.4.2/../../../../arm-eabi/lib/thumb\libg.a(lib_a-fseek.o)
                              d:/devkitpro/devkitarm/bin/../lib/gcc/arm-eabi/4.4.2/../../../../arm-eabi/lib/thumb\libg.a(lib_a-fopen.o) (_fseek_r)
d:/devkitpro/devkitarm/bin/../lib/gcc/arm-eabi/4.4.2/../../../../arm-eabi/lib/thumb\libg.a(lib_a-fwalk.o)
                              d:/devkitpro/devkitarm/bin/../lib/gcc/arm-eabi/4.4.2/../../../../arm-eabi/lib/thumb\libg.a(lib_a-fflush.o) (_fwalk_reent)
d:/devkitpro/devkitarm/bin/../lib/gcc/arm-eabi/4.4.2/../../../../arm-eabi/lib/thumb\libg.a(lib_a-gmtime.o)
                              d:/devkitPro/PAlib/lib\libpa9.a(PA_RTC.o) (gmtime)
d:/devkitpro/devkitarm/bin/../lib/gcc/arm-eabi/4.4.2/../../../../arm-eabi/lib/thumb\libg.a(lib_a-gmtime_r.o)
                              d:/devkitpro/devkitarm/bin/../lib/gcc/arm-eabi/4.4.2/../../../../arm-eabi/lib/thumb\libg.a(lib_a-gmtime.o) (gmtime_r)
d:/devkitpro/devkitarm/bin/../lib/gcc/arm-eabi/4.4.2/../../../../arm-eabi/lib/thumb\libg.a(lib_a-impure.o)
                              d:/devkitPro/PAlib/lib\libpa9.a(gif_err.o) (_impure_ptr)
d:/devkitpro/devkitarm/bin/../lib/gcc/arm-eabi/4.4.2/../../../../arm-eabi/lib/thumb\libg.a(lib_a-init.o)
                              d:/devkitpro/devkitarm/bin/../lib/gcc/arm-eabi/4.4.2/../../../../arm-eabi/lib/thumb/ds_arm9_crt0.o (__libc_init_array)
d:/devkitpro/devkitarm/bin/../lib/gcc/arm-eabi/4.4.2/../../../../arm-eabi/lib/thumb\libg.a(lib_a-locale.o)
                              d:/devkitPro/PAlib/lib\libpa9.a(PA_Inits.o) (setlocale)
d:/devkitpro/devkitarm/bin/../lib/gcc/arm-eabi/4.4.2/../../../../arm-eabi/lib/thumb\libg.a(lib_a-makebuf.o)
                              d:/devkitpro/devkitarm/bin/../lib/gcc/arm-eabi/4.4.2/../../../../arm-eabi/lib/thumb\libg.a(lib_a-fseek.o) (__smakebuf_r)
d:/devkitpro/devkitarm/bin/../lib/gcc/arm-eabi/4.4.2/../../../../arm-eabi/lib/thumb\libg.a(lib_a-malloc.o)
                              Game.o (free)
d:/devkitpro/devkitarm/bin/../lib/gcc/arm-eabi/4.4.2/../../../../arm-eabi/lib/thumb\libg.a(lib_a-mallocr.o)
                              d:/devkitpro/devkitarm/bin/../lib/gcc/arm-eabi/4.4.2/../../../../arm-eabi/lib/thumb\libg.a(lib_a-callocr.o) (_malloc_r)
d:/devkitpro/devkitarm/bin/../lib/gcc/arm-eabi/4.4.2/../../../../arm-eabi/lib/thumb\libg.a(lib_a-memcmp.o)
                              d:/devkitPro/PAlib/lib\libpa9.a(gifalloc.o) (memcmp)
d:/devkitpro/devkitarm/bin/../lib/gcc/arm-eabi/4.4.2/../../../../arm-eabi/lib/thumb\libg.a(lib_a-memcpy.o)
                              Door.o (memcpy)
d:/devkitpro/devkitarm/bin/../lib/gcc/arm-eabi/4.4.2/../../../../arm-eabi/lib/thumb\libg.a(lib_a-memset.o)
                              d:/devkitPro/PAlib/lib\libpa9.a(PA_Inits.o) (memset)
d:/devkitpro/devkitarm/bin/../lib/gcc/arm-eabi/4.4.2/../../../../arm-eabi/lib/thumb\libg.a(lib_a-mktm_r.o)
                              d:/devkitpro/devkitarm/bin/../lib/gcc/arm-eabi/4.4.2/../../../../arm-eabi/lib/thumb\libg.a(lib_a-gmtime_r.o) (_mktm_r)
d:/devkitpro/devkitarm/bin/../lib/gcc/arm-eabi/4.4.2/../../../../arm-eabi/lib/thumb\libg.a(lib_a-mlock.o)
                              d:/devkitpro/devkitarm/bin/../lib/gcc/arm-eabi/4.4.2/../../../../arm-eabi/lib/thumb\libg.a(lib_a-freer.o) (__malloc_lock)
d:/devkitpro/devkitarm/bin/../lib/gcc/arm-eabi/4.4.2/../../../../arm-eabi/lib/thumb\libg.a(lib_a-realloc.o)
                              d:/devkitPro/PAlib/lib\libpa9.a(dgif_lib.o) (realloc)
d:/devkitpro/devkitarm/bin/../lib/gcc/arm-eabi/4.4.2/../../../../arm-eabi/lib/thumb\libg.a(lib_a-reallocr.o)
                              d:/devkitpro/devkitarm/bin/../lib/gcc/arm-eabi/4.4.2/../../../../arm-eabi/lib/thumb\libg.a(lib_a-realloc.o) (_realloc_r)
d:/devkitpro/devkitarm/bin/../lib/gcc/arm-eabi/4.4.2/../../../../arm-eabi/lib/thumb\libg.a(lib_a-refill.o)
                              d:/devkitpro/devkitarm/bin/../lib/gcc/arm-eabi/4.4.2/../../../../arm-eabi/lib/thumb\libg.a(lib_a-fread.o) (__srefill_r)
d:/devkitpro/devkitarm/bin/../lib/gcc/arm-eabi/4.4.2/../../../../arm-eabi/lib/thumb\libg.a(lib_a-sprintf.o)
                              DuelStage.o (sprintf)
d:/devkitpro/devkitarm/bin/../lib/gcc/arm-eabi/4.4.2/../../../../arm-eabi/lib/thumb\libg.a(lib_a-stdio.o)
                              d:/devkitpro/devkitarm/bin/../lib/gcc/arm-eabi/4.4.2/../../../../arm-eabi/lib/thumb\libg.a(lib_a-findfp.o) (__sclose)
d:/devkitpro/devkitarm/bin/../lib/gcc/arm-eabi/4.4.2/../../../../arm-eabi/lib/thumb\libg.a(lib_a-strcasecmp.o)
                              d:/devkitPro/PAlib/lib\libpa9.a(PA_Stuff.o) (strcasecmp)
d:/devkitpro/devkitarm/bin/../lib/gcc/arm-eabi/4.4.2/../../../../arm-eabi/lib/thumb\libg.a(lib_a-strcat.o)
                              d:/devkitPro/PAlib/lib\libpa9.a(PA_Stuff.o) (strcat)
d:/devkitpro/devkitarm/bin/../lib/gcc/arm-eabi/4.4.2/../../../../arm-eabi/lib/thumb\libg.a(lib_a-strcmp.o)
                              d:/devkitPro/PAlib/lib\libpa9.a(PA_Stuff.o) (strcmp)
d:/devkitpro/devkitarm/bin/../lib/gcc/arm-eabi/4.4.2/../../../../arm-eabi/lib/thumb\libg.a(lib_a-strcpy.o)
                              d:/devkitPro/PAlib/lib\libpa9.a(PA_Stuff.o) (strcpy)
d:/devkitpro/devkitarm/bin/../lib/gcc/arm-eabi/4.4.2/../../../../arm-eabi/lib/thumb\libg.a(lib_a-strlen.o)
                              TextManager.o (strlen)
d:/devkitpro/devkitarm/bin/../lib/gcc/arm-eabi/4.4.2/../../../../arm-eabi/lib/thumb\libg.a(lib_a-svfprintf.o)
                              d:/devkitpro/devkitarm/bin/../lib/gcc/arm-eabi/4.4.2/../../../../arm-eabi/lib/thumb\libg.a(lib_a-sprintf.o) (_svfprintf_r)
d:/devkitpro/devkitarm/bin/../lib/gcc/arm-eabi/4.4.2/../../../../arm-eabi/lib/thumb\libg.a(lib_a-sysstat.o)
                              d:/devkitPro/PAlib/lib\libpa9.a(PA_Stuff.o) (stat)
d:/devkitpro/devkitarm/bin/../lib/gcc/arm-eabi/4.4.2/../../../../arm-eabi/lib/thumb\libg.a(lib_a-time.o)
                              d:/devkitPro/PAlib/lib\libpa9.a(PA_RTC.o) (time)
d:/devkitpro/devkitarm/bin/../lib/gcc/arm-eabi/4.4.2/../../../../arm-eabi/lib/thumb\libg.a(lib_a-tzlock.o)
                              d:/devkitpro/devkitarm/bin/../lib/gcc/arm-eabi/4.4.2/../../../../arm-eabi/lib/thumb\libg.a(lib_a-mktm_r.o) (__tz_lock)
d:/devkitpro/devkitarm/bin/../lib/gcc/arm-eabi/4.4.2/../../../../arm-eabi/lib/thumb\libg.a(lib_a-tzvars.o)
                              d:/devkitpro/devkitarm/bin/../lib/gcc/arm-eabi/4.4.2/../../../../arm-eabi/lib/thumb\libg.a(lib_a-mktm_r.o) (_daylight)
d:/devkitpro/devkitarm/bin/../lib/gcc/arm-eabi/4.4.2/../../../../arm-eabi/lib/thumb\libg.a(lib_a-vfprintf.o)
                              d:/devkitpro/devkitarm/bin/../lib/gcc/arm-eabi/4.4.2/../../../../arm-eabi/lib/thumb\libg.a(lib_a-fprintf.o) (_vfprintf_r)
d:/devkitpro/devkitarm/bin/../lib/gcc/arm-eabi/4.4.2/../../../../arm-eabi/lib/thumb\libg.a(lib_a-wcrtomb.o)
                              d:/devkitpro/devkitarm/bin/../lib/gcc/arm-eabi/4.4.2/../../../../arm-eabi/lib/thumb\libg.a(lib_a-svfprintf.o) (_wcrtomb_r)
d:/devkitpro/devkitarm/bin/../lib/gcc/arm-eabi/4.4.2/../../../../arm-eabi/lib/thumb\libg.a(lib_a-wcsrtombs.o)
                              d:/devkitpro/devkitarm/bin/../lib/gcc/arm-eabi/4.4.2/../../../../arm-eabi/lib/thumb\libg.a(lib_a-svfprintf.o) (_wcsrtombs_r)
d:/devkitpro/devkitarm/bin/../lib/gcc/arm-eabi/4.4.2/../../../../arm-eabi/lib/thumb\libg.a(lib_a-wctomb_r.o)
                              d:/devkitpro/devkitarm/bin/../lib/gcc/arm-eabi/4.4.2/../../../../arm-eabi/lib/thumb\libg.a(lib_a-wcrtomb.o) (_wctomb_r)
d:/devkitpro/devkitarm/bin/../lib/gcc/arm-eabi/4.4.2/../../../../arm-eabi/lib/thumb\libg.a(lib_a-wsetup.o)
                              d:/devkitpro/devkitarm/bin/../lib/gcc/arm-eabi/4.4.2/../../../../arm-eabi/lib/thumb\libg.a(lib_a-vfprintf.o) (__swsetup_r)
d:/devkitpro/devkitarm/bin/../lib/gcc/arm-eabi/4.4.2/../../../../arm-eabi/lib/thumb\libg.a(lib_a-__atexit.o)
                              d:/devkitpro/devkitarm/bin/../lib/gcc/arm-eabi/4.4.2/../../../../arm-eabi/lib/thumb\libg.a(lib_a-cxa_atexit.o) (__register_exitproc)
d:/devkitpro/devkitarm/bin/../lib/gcc/arm-eabi/4.4.2/../../../../arm-eabi/lib/thumb\libg.a(lib_a-ctype_.o)
                              d:/devkitpro/devkitarm/bin/../lib/gcc/arm-eabi/4.4.2/../../../../arm-eabi/lib/thumb\libg.a(lib_a-strcasecmp.o) (__ctype_ptr__)
d:/devkitpro/devkitarm/bin/../lib/gcc/arm-eabi/4.4.2/../../../../arm-eabi/lib/thumb\libg.a(lib_a-dtoa.o)
                              d:/devkitpro/devkitarm/bin/../lib/gcc/arm-eabi/4.4.2/../../../../arm-eabi/lib/thumb\libg.a(lib_a-svfprintf.o) (_dtoa_r)
d:/devkitpro/devkitarm/bin/../lib/gcc/arm-eabi/4.4.2/../../../../arm-eabi/lib/thumb\libg.a(lib_a-flags.o)
                              d:/devkitpro/devkitarm/bin/../lib/gcc/arm-eabi/4.4.2/../../../../arm-eabi/lib/thumb\libg.a(lib_a-fopen.o) (__sflags)
d:/devkitpro/devkitarm/bin/../lib/gcc/arm-eabi/4.4.2/../../../../arm-eabi/lib/thumb\libg.a(lib_a-fvwrite.o)
                              d:/devkitpro/devkitarm/bin/../lib/gcc/arm-eabi/4.4.2/../../../../arm-eabi/lib/thumb\libg.a(lib_a-vfprintf.o) (__sfvwrite_r)
d:/devkitpro/devkitarm/bin/../lib/gcc/arm-eabi/4.4.2/../../../../arm-eabi/lib/thumb\libg.a(lib_a-gettzinfo.o)
                              d:/devkitpro/devkitarm/bin/../lib/gcc/arm-eabi/4.4.2/../../../../arm-eabi/lib/thumb\libg.a(lib_a-mktm_r.o) (__gettzinfo)
d:/devkitpro/devkitarm/bin/../lib/gcc/arm-eabi/4.4.2/../../../../arm-eabi/lib/thumb\libg.a(lib_a-mbtowc_r.o)
                              d:/devkitpro/devkitarm/bin/../lib/gcc/arm-eabi/4.4.2/../../../../arm-eabi/lib/thumb\libg.a(lib_a-svfprintf.o) (_mbtowc_r)
d:/devkitpro/devkitarm/bin/../lib/gcc/arm-eabi/4.4.2/../../../../arm-eabi/lib/thumb\libg.a(lib_a-memchr.o)
                              d:/devkitpro/devkitarm/bin/../lib/gcc/arm-eabi/4.4.2/../../../../arm-eabi/lib/thumb\libg.a(lib_a-svfprintf.o) (memchr)
d:/devkitpro/devkitarm/bin/../lib/gcc/arm-eabi/4.4.2/../../../../arm-eabi/lib/thumb\libg.a(lib_a-memmove.o)
                              d:/devkitpro/devkitarm/bin/../lib/gcc/arm-eabi/4.4.2/../../../../arm-eabi/lib/thumb\libg.a(lib_a-reallocr.o) (memmove)
d:/devkitpro/devkitarm/bin/../lib/gcc/arm-eabi/4.4.2/../../../../arm-eabi/lib/thumb\libg.a(lib_a-mprec.o)
                              d:/devkitpro/devkitarm/bin/../lib/gcc/arm-eabi/4.4.2/../../../../arm-eabi/lib/thumb\libg.a(lib_a-dtoa.o) (_Bfree)
d:/devkitpro/devkitarm/bin/../lib/gcc/arm-eabi/4.4.2/../../../../arm-eabi/lib/thumb\libg.a(lib_a-s_isinfd.o)
                              d:/devkitpro/devkitarm/bin/../lib/gcc/arm-eabi/4.4.2/../../../../arm-eabi/lib/thumb\libg.a(lib_a-svfprintf.o) (__isinfd)
d:/devkitpro/devkitarm/bin/../lib/gcc/arm-eabi/4.4.2/../../../../arm-eabi/lib/thumb\libg.a(lib_a-s_isnand.o)
                              d:/devkitpro/devkitarm/bin/../lib/gcc/arm-eabi/4.4.2/../../../../arm-eabi/lib/thumb\libg.a(lib_a-svfprintf.o) (__isnand)
d:/devkitpro/devkitarm/bin/../lib/gcc/arm-eabi/4.4.2/../../../../arm-eabi/lib/thumb\libsysbase.a(close.o)
                              d:/devkitpro/devkitarm/bin/../lib/gcc/arm-eabi/4.4.2/../../../../arm-eabi/lib/thumb\libg.a(lib_a-stdio.o) (_close_r)
d:/devkitpro/devkitarm/bin/../lib/gcc/arm-eabi/4.4.2/../../../../arm-eabi/lib/thumb\libsysbase.a(fstat.o)
                              d:/devkitpro/devkitarm/bin/../lib/gcc/arm-eabi/4.4.2/../../../../arm-eabi/lib/thumb\libg.a(lib_a-fseek.o) (_fstat_r)
d:/devkitpro/devkitarm/bin/../lib/gcc/arm-eabi/4.4.2/../../../../arm-eabi/lib/thumb\libsysbase.a(isatty.o)
                              d:/devkitpro/devkitarm/bin/../lib/gcc/arm-eabi/4.4.2/../../../../arm-eabi/lib/thumb\libg.a(lib_a-makebuf.o) (_isatty_r)
d:/devkitpro/devkitarm/bin/../lib/gcc/arm-eabi/4.4.2/../../../../arm-eabi/lib/thumb\libsysbase.a(lseek.o)
                              d:/devkitpro/devkitarm/bin/../lib/gcc/arm-eabi/4.4.2/../../../../arm-eabi/lib/thumb\libg.a(lib_a-stdio.o) (_lseek_r)
d:/devkitpro/devkitarm/bin/../lib/gcc/arm-eabi/4.4.2/../../../../arm-eabi/lib/thumb\libsysbase.a(open.o)
                              d:/devkitpro/devkitarm/bin/../lib/gcc/arm-eabi/4.4.2/../../../../arm-eabi/lib/thumb\libg.a(lib_a-fopen.o) (_open_r)
d:/devkitpro/devkitarm/bin/../lib/gcc/arm-eabi/4.4.2/../../../../arm-eabi/lib/thumb\libsysbase.a(read.o)
                              d:/devkitpro/devkitarm/bin/../lib/gcc/arm-eabi/4.4.2/../../../../arm-eabi/lib/thumb\libg.a(lib_a-stdio.o) (_read_r)
d:/devkitpro/devkitarm/bin/../lib/gcc/arm-eabi/4.4.2/../../../../arm-eabi/lib/thumb\libsysbase.a(sbrk.o)
                              d:/devkitpro/devkitarm/bin/../lib/gcc/arm-eabi/4.4.2/../../../../arm-eabi/lib/thumb\libg.a(lib_a-freer.o) (_sbrk_r)
d:/devkitpro/devkitarm/bin/../lib/gcc/arm-eabi/4.4.2/../../../../arm-eabi/lib/thumb\libsysbase.a(stat.o)
                              d:/devkitpro/devkitarm/bin/../lib/gcc/arm-eabi/4.4.2/../../../../arm-eabi/lib/thumb\libg.a(lib_a-sysstat.o) (_stat_r)
d:/devkitpro/devkitarm/bin/../lib/gcc/arm-eabi/4.4.2/../../../../arm-eabi/lib/thumb\libsysbase.a(times.o)
                              d:/devkitpro/devkitarm/bin/../lib/gcc/arm-eabi/4.4.2/../../../../arm-eabi/lib/thumb\libg.a(lib_a-time.o) (_gettimeofday_r)
d:/devkitpro/devkitarm/bin/../lib/gcc/arm-eabi/4.4.2/../../../../arm-eabi/lib/thumb\libsysbase.a(write.o)
                              d:/devkitpro/devkitarm/bin/../lib/gcc/arm-eabi/4.4.2/../../../../arm-eabi/lib/thumb\libg.a(lib_a-stdio.o) (_write_r)
d:/devkitpro/devkitarm/bin/../lib/gcc/arm-eabi/4.4.2/../../../../arm-eabi/lib/thumb\libsysbase.a(malloc_vars.o)
                              d:/devkitpro/devkitarm/bin/../lib/gcc/arm-eabi/4.4.2/../../../../arm-eabi/lib/thumb/ds_arm9_crt0.o (fake_heap_end)
d:/devkitpro/devkitarm/bin/../lib/gcc/arm-eabi/4.4.2/../../../../arm-eabi/lib/thumb\libsysbase.a(build_argv.o)
                              d:/devkitpro/devkitarm/bin/../lib/gcc/arm-eabi/4.4.2/../../../../arm-eabi/lib/thumb/ds_arm9_crt0.o (build_argv)
d:/devkitpro/devkitarm/bin/../lib/gcc/arm-eabi/4.4.2/../../../../arm-eabi/lib/thumb\libsysbase.a(handle_manager.o)
                              d:/devkitpro/devkitarm/bin/../lib/gcc/arm-eabi/4.4.2/../../../../arm-eabi/lib/thumb\libsysbase.a(close.o) (__get_handle)
d:/devkitpro/devkitarm/bin/../lib/gcc/arm-eabi/4.4.2/../../../../arm-eabi/lib/thumb\libsysbase.a(dirent.o)
                              d:/devkitPro/PAlib/lib\libpa9.a(PA_Stuff.o) (readdir)
d:/devkitpro/devkitarm/bin/../lib/gcc/arm-eabi/4.4.2/../../../../arm-eabi/lib/thumb\libsysbase.a(iosupport.o)
                              d:/devkitpro/devkitarm/bin/../lib/gcc/arm-eabi/4.4.2/../../../../arm-eabi/lib/thumb\libsysbase.a(open.o) (FindDevice)
d:/devkitpro/devkitarm/bin/../lib/gcc/arm-eabi/4.4.2/../../../../arm-eabi/lib/thumb\libsysbase.a(dir.o)
                              d:/devkitpro/devkitarm/bin/../lib/gcc/arm-eabi/4.4.2/../../../../arm-eabi/lib/thumb\libsysbase.a(dirent.o) (dirreset)
d:/devkitpro/devkitarm/bin/../lib/gcc/arm-eabi/4.4.2/../../../../arm-eabi/lib/thumb\libg.a(lib_a-errno.o)
                              d:/devkitpro/devkitarm/bin/../lib/gcc/arm-eabi/4.4.2/../../../../arm-eabi/lib/thumb\libsysbase.a(times.o) (__errno)
d:/devkitpro/devkitarm/bin/../lib/gcc/arm-eabi/4.4.2/../../../../arm-eabi/lib/thumb\libg.a(lib_a-strchr.o)
                              d:/devkitpro/devkitarm/bin/../lib/gcc/arm-eabi/4.4.2/../../../../arm-eabi/lib/thumb\libsysbase.a(iosupport.o) (strchr)
d:/devkitpro/devkitarm/bin/../lib/gcc/arm-eabi/4.4.2/../../../../arm-eabi/lib/thumb\libg.a(lib_a-strncmp.o)
                              d:/devkitpro/devkitarm/bin/../lib/gcc/arm-eabi/4.4.2/../../../../arm-eabi/lib/thumb\libsysbase.a(iosupport.o) (strncmp)
d:/devkitpro/devkitarm/bin/../lib/gcc/arm-eabi/4.4.2/../../../../arm-eabi/lib/thumb\libg.a(lib_a-strncpy.o)
                              d:/devkitpro/devkitarm/bin/../lib/gcc/arm-eabi/4.4.2/../../../../arm-eabi/lib/thumb\libsysbase.a(dirent.o) (strncpy)
d:/devkitpro/devkitarm/bin/../lib/gcc/arm-eabi/4.4.2/../../../../arm-eabi/lib/thumb\libg.a(lib_a-strnlen.o)
                              d:/devkitpro/devkitarm/bin/../lib/gcc/arm-eabi/4.4.2/../../../../arm-eabi/lib/thumb\libsysbase.a(dirent.o) (strnlen)

Allocating common symbols
Common symbol       size              file

PA_ScreenSpace      0x2               d:/devkitPro/PAlib/lib\libpa9.a(PA.o)
PA_Reco             0xc               d:/devkitPro/PAlib/lib\libpa9.a(PA_Reco.o)
fifo_datamsg_data   0x40              d:/devkitPro/libnds/lib\libnds9.a(fifosystem.o)
PA_Draw16           0x8               d:/devkitPro/PAlib/lib\libpa9.a(PA_16c.o)
PA_RTC              0x8               d:/devkitPro/PAlib/lib\libpa9.a(PA_RTC.o)
free_mem            0x2000            d:/devkitPro/PAlib/lib\libpa9.a(PA_Sprite.o)
PadPointer          0x4               d:/devkitPro/PAlib/lib\libpa9.a(PA.o)
fifo_buffer         0x800             d:/devkitPro/libnds/lib\libnds9.a(fifosystem.o)
PA_texttiles        0x8               d:/devkitPro/PAlib/lib\libpa9.a(PA_Text.o)
n_free_mem          0x4               d:/devkitPro/PAlib/lib\libpa9.a(PA_Sprite.o)
PA_SpritePrio       0x100             d:/devkitPro/PAlib/lib\libpa9.a(PA_Sprite.o)
PA_LetterPos        0x3004            d:/devkitPro/PAlib/lib\libpa9.a(PA_TextBits.o)
PA_olddowntime      0x4               d:/devkitPro/PAlib/lib\libpa9.a(PA_Draw.o)
PA_Keyboard_Struct  0x12              d:/devkitPro/PAlib/lib\libpa9.a(PA_Keyboard.o)
PA_VBLCounter       0x40              d:/devkitPro/PAlib/lib\libpa9.a(PA_Interrupt.o)
PA_parallaxY        0x20              d:/devkitPro/PAlib/lib\libpa9.a(PA_BgTiles.o)
used_mem            0x800             d:/devkitPro/PAlib/lib\libpa9.a(PA_Sprite.o)
fifo_value32_func   0x40              d:/devkitPro/libnds/lib\libnds9.a(fifosystem.o)
fifo_address_func   0x40              d:/devkitPro/libnds/lib\libnds9.a(fifosystem.o)
PA_parallaxX        0x20              d:/devkitPro/PAlib/lib\libpa9.a(PA_BgTiles.o)
PA_DrawBg32         0x8               d:/devkitPro/PAlib/lib\libpa9.a(PA_Draw.o)
pa_checklid         0x1               d:/devkitPro/PAlib/lib\libpa9.a(PA.o)
PA_RecoInfo         0x18              d:/devkitPro/PAlib/lib\libpa9.a(PA_Reco.o)
temppalette         0x4               d:/devkitPro/PAlib/lib\libpa9.a(PA_Gif.o)
spriteanims         0x2400            d:/devkitPro/PAlib/lib\libpa9.a(PA_Sprite.o)
PA_SpriteAnimP      0x2000            d:/devkitPro/PAlib/lib\libpa9.a(PA_Sprite.o)
PA_IPC              0x198             d:/devkitPro/PAlib/lib\libpa9.a(PA.o)
gifheight           0x2               d:/devkitPro/PAlib/lib\libpa9.a(PA_Gif.o)
Pad                 0x27              d:/devkitPro/PAlib/lib\libpa9.a(PA.o)
PA_TextBox          0x8               d:/devkitPro/PAlib/lib\libpa9.a(PA_Text.o)
PAbgtext            0x2               d:/devkitPro/PAlib/lib\libpa9.a(PA_Text.o)
tempsize            0x2               d:/devkitPro/PAlib/lib\libpa9.a(PA_BgTiles.o)
pa_printx           0x8               d:/devkitPro/PAlib/lib\libpa9.a(PA_Text.o)
pa_bittextpoliceheight
                    0xa               d:/devkitPro/PAlib/lib\libpa9.a(PA_TextBits.o)
pa8bitbuffer        0x2               d:/devkitPro/PAlib/lib\libpa9.a(PA_Draw8bit.o)
gifwidth            0x2               d:/devkitPro/PAlib/lib\libpa9.a(PA_Gif.o)
Stylus              0x1c              d:/devkitPro/PAlib/lib\libpa9.a(PA.o)
PA_first            0x200             d:/devkitPro/PAlib/lib\libpa9.a(PA_Sprite.o)
LineBuf             0x800             d:/devkitPro/PAlib/lib\libpa9.a(PA_Gif.o)
pa_bittextsizes     0xa               d:/devkitPro/PAlib/lib\libpa9.a(PA_TextBits.o)
fifo_value32_data   0x40              d:/devkitPro/libnds/lib\libnds9.a(fifosystem.o)
theTime             0x4               d:/devkitPro/libnds/lib\libnds9.a(initSystem.o)
charblocks          0x8c              d:/devkitPro/PAlib/lib\libpa9.a(PA_BgTiles.o)
PA_next             0x100             d:/devkitPro/PAlib/lib\libpa9.a(PA_Sprite.o)
PA_bgmap            0x20              d:/devkitPro/PAlib/lib\libpa9.a(PA.o)
PA_GifInfo          0x14              d:/devkitPro/PAlib/lib\libpa9.a(PA.o)
fifo_value32_queue  0x40              d:/devkitPro/libnds/lib\libnds9.a(fifosystem.o)
PA_StylusPos        0x9c40            d:/devkitPro/PAlib/lib\libpa9.a(PA_Reco.o)
fifo_data_queue     0x40              d:/devkitPro/libnds/lib\libnds9.a(fifosystem.o)
rotbg_size          0x8               d:/devkitPro/PAlib/lib\libpa9.a(PA_BgRot.o)
PA_VBLCounterOn     0x10              d:/devkitPro/PAlib/lib\libpa9.a(PA_Interrupt.o)
pa_printy           0x8               d:/devkitPro/PAlib/lib\libpa9.a(PA_Text.o)
PA_DrawBg           0x8               d:/devkitPro/PAlib/lib\libpa9.a(PA_Draw.o)
PA_oldx             0x4               d:/devkitPro/PAlib/lib\libpa9.a(PA_Draw.o)
textcol             0x4               d:/devkitPro/PAlib/lib\libpa9.a(PA_Text.o)
gifinfo             0x4               d:/devkitPro/PAlib/lib\libpa9.a(PA_Gif.o)
PA_drawsize         0x2               d:/devkitPro/PAlib/lib\libpa9.a(PA_Draw.o)
obj_per_gfx         0x800             d:/devkitPro/PAlib/lib\libpa9.a(PA_Sprite.o)
PA_CustomShape      0xd48             d:/devkitPro/PAlib/lib\libpa9.a(PA_Reco.o)
PA_RecoShape        0x10              d:/devkitPro/PAlib/lib\libpa9.a(PA_Reco.o)
pa_printscroll      0x4               d:/devkitPro/PAlib/lib\libpa9.a(PA_Text.o)
PA_oldy             0x4               d:/devkitPro/PAlib/lib\libpa9.a(PA_Draw.o)
PA_MovedSprite      0x10              d:/devkitPro/PAlib/lib\libpa9.a(PA.o)
PA_BgInfo           0x220             d:/devkitPro/PAlib/lib\libpa9.a(PA_BgTiles.o)
tempvar             0x2               d:/devkitPro/PAlib/lib\libpa9.a(PA_Draw.o)
punixTime           0x4               d:/devkitpro/devkitarm/bin/../lib/gcc/arm-eabi/4.4.2/../../../../arm-eabi/lib/thumb\libsysbase.a(times.o)
fifo_address_data   0x40              d:/devkitPro/libnds/lib\libnds9.a(fifosystem.o)
_PA_LidDown         0x1               d:/devkitPro/PAlib/lib\libpa9.a(PA_Keys.o)
PA_temppal          0x200             d:/devkitPro/PAlib/lib\libpa9.a(PA_Draw.o)
PA_UserInfo         0x52              d:/devkitPro/PAlib/lib\libpa9.a(PA_RTC.o)
scrollpos           0xe0              d:/devkitPro/PAlib/lib\libpa9.a(PA_BgTiles.o)
PA_obj              0x800             d:/devkitPro/PAlib/lib\libpa9.a(PA_Sprite.o)
DualSpriteX         0x100             d:/devkitPro/PAlib/lib\libpa9.a(PA_Sprite.o)
m                   0x4               d:/devkitPro/PAlib/lib\libpa9.a(PA_Gif.o)
PA_textpal          0x8               d:/devkitPro/PAlib/lib\libpa9.a(PA_Text.o)
PA_nBit             0x2               d:/devkitPro/PAlib/lib\libpa9.a(PA_Draw.o)
fifo_datamsg_func   0x40              d:/devkitPro/libnds/lib\libnds9.a(fifosystem.o)
tempscreen          0x4               d:/devkitPro/PAlib/lib\libpa9.a(PA_Gif.o)
PA_Draw1632         0x8               d:/devkitPro/PAlib/lib\libpa9.a(PA_16c.o)
fifo_address_queue  0x40              d:/devkitPro/libnds/lib\libnds9.a(fifosystem.o)
PA_textmap          0x8               d:/devkitPro/PAlib/lib\libpa9.a(PA_Text.o)
GifBits             0x1               d:/devkitPro/PAlib/lib\libpa9.a(PA_Gif.o)
PA_ExtPal           0x4               d:/devkitPro/PAlib/lib\libpa9.a(PA_Palette.o)

Memory Configuration

Name             Origin             Length             Attributes
rom              0x08000000         0x02000000
ewram            0x02000000         0x003ff000
dtcm             0x0b000000         0x00004000
vectors          0x01000000         0x00000100
itcm             0x01000100         0x00007f00
*default*        0x00000000         0xffffffff

Linker script and memory map

                0x01000000                __vectors_start = 0x1000000
                0x01000100                __itcm_start = 0x1000100
                0x023ff000                __ewram_end = 0x23ff000
                0x023ff000                __eheap_end = 0x23ff000
                0x0b000000                __dtcm_start = 0xb000000
                0x0b004000                __dtcm_top = 0xb004000
                0x0b003ff8                __irq_flags = (__dtcm_top - 0x8)
                0x0b003ffc                __irq_vector = (__dtcm_top - 0x4)
                0x0b003f00                __sp_svc = (__dtcm_top - 0x100)
                0x0b003e00                __sp_irq = (__sp_svc - 0x100)
                0x0b003d00                __sp_usr = (__sp_irq - 0x100)

.init           0x02000000      0x21c
                0x02000000                __text_start = .
 *(.init)
 .init          0x02000000      0x210 d:/devkitpro/devkitarm/bin/../lib/gcc/arm-eabi/4.4.2/../../../../arm-eabi/lib/thumb/ds_arm9_crt0.o
                0x02000000                _start
 .init          0x02000210        0x4 d:/devkitpro/devkitarm/bin/../lib/gcc/arm-eabi/4.4.2/thumb/crti.o
                0x02000210                _init
 .init          0x02000214        0x8 d:/devkitpro/devkitarm/bin/../lib/gcc/arm-eabi/4.4.2/thumb/crtn.o
                0x0200021c                . = ALIGN (0x4)

.plt
 *(.plt)

.text           0x02000220    0x17fa8
 *(EXCLUDE_FILE(*.itcm*) .text)
 .text          0x02000220        0x0 d:/devkitpro/devkitarm/bin/../lib/gcc/arm-eabi/4.4.2/../../../../arm-eabi/lib/thumb/ds_arm9_crt0.o
 .text          0x02000220        0x0 d:/devkitpro/devkitarm/bin/../lib/gcc/arm-eabi/4.4.2/thumb/crti.o
 .text          0x02000220       0x6c d:/devkitpro/devkitarm/bin/../lib/gcc/arm-eabi/4.4.2/thumb/crtbegin.o
 .text          0x0200028c        0x0 bg_bang_Map.o
 .text          0x0200028c        0x0 bg_bang_Pal.o
 .text          0x0200028c        0x0 bg_bang_Tiles.o
 .text          0x0200028c        0x0 bg_boom_Map.o
 .text          0x0200028c        0x0 bg_boom_Pal.o
 .text          0x0200028c        0x0 bg_boom_Tiles.o
 .text          0x0200028c        0x0 bg_desks_Map.o
 .text          0x0200028c        0x0 bg_desks_Pal.o
 .text          0x0200028c        0x0 bg_desks_Tiles.o
 .text          0x0200028c        0x0 bg_doors_Map.o
 .text          0x0200028c        0x0 bg_doors_Pal.o
 .text          0x0200028c        0x0 bg_doors_Tiles.o
 .text          0x0200028c        0x0 bg_duelStage_Map.o
 .text          0x0200028c        0x0 bg_duelStage_Pal.o
 .text          0x0200028c        0x0 bg_duelStage_Tiles.o
 .text          0x0200028c        0x0 bg_intro_Map.o
 .text          0x0200028c        0x0 bg_intro_Pal.o
 .text          0x0200028c        0x0 bg_intro_Tiles.o
 .text          0x0200028c        0x0 bg_mainMenu_Map.o
 .text          0x0200028c        0x0 bg_mainMenu_Pal.o
 .text          0x0200028c        0x0 bg_mainMenu_Tiles.o
 .text          0x0200028c        0x0 bg_mainStage_Map.o
 .text          0x0200028c        0x0 bg_mainStage_Pal.o
 .text          0x0200028c        0x0 bg_mainStage_Tiles.o
 .text          0x0200028c        0x0 mainFont_Map.o
 .text          0x0200028c        0x0 mainFont_Pal.o
 .text          0x0200028c        0x0 mainFont_Tiles.o
 .text          0x0200028c        0x0 sp_BigDollar_Pal.o
 .text          0x0200028c        0x0 sp_BigDollar_Sprite.o
 .text          0x0200028c        0x0 sp_bandit1_1a_Sprite.o
 .text          0x0200028c        0x0 sp_bandit1_1b_Sprite.o
 .text          0x0200028c        0x0 sp_bandit1_Pal.o
 .text          0x0200028c        0x0 sp_bandit1_die_Pal.o
 .text          0x0200028c        0x0 sp_bandit1_die_bot_Sprite.o
 .text          0x0200028c        0x0 sp_bandit1_die_top_Sprite.o
 .text          0x0200028c        0x0 sp_bandit_duel1_Pal.o
 .text          0x0200028c        0x0 sp_bandit_duel1_a_Sprite.o
 .text          0x0200028c        0x0 sp_bandit_duel1_b_Sprite.o
 .text          0x0200028c        0x0 sp_bandit_duel1_background_Sprite.o
 .text          0x0200028c        0x0 sp_bandit_duel1_c_Sprite.o
 .text          0x0200028c        0x0 sp_bandit_duel1_dying_Sprite.o
 .text          0x0200028c        0x0 sp_bandit_duel2_Pal.o
 .text          0x0200028c        0x0 sp_bandit_duel2_a_Sprite.o
 .text          0x0200028c        0x0 sp_bandit_duel2_b_Sprite.o
 .text          0x0200028c        0x0 sp_bandit_duel2_background_Sprite.o
 .text          0x0200028c        0x0 sp_bandit_duel2_c_Sprite.o
 .text          0x0200028c        0x0 sp_bandit_duel2_dying_Sprite.o
 .text          0x0200028c        0x0 sp_bandit_duel3_Pal.o
 .text          0x0200028c        0x0 sp_bandit_duel3_a_Sprite.o
 .text          0x0200028c        0x0 sp_bandit_duel3_b_Sprite.o
 .text          0x0200028c        0x0 sp_bandit_duel3_background_Sprite.o
 .text          0x0200028c        0x0 sp_bandit_duel3_c_Sprite.o
 .text          0x0200028c        0x0 sp_bandit_duel3_dying_Sprite.o
 .text          0x0200028c        0x0 sp_dolar_Sprite.o
 .text          0x0200028c        0x0 sp_dollar_Pal.o
 .text          0x0200028c        0x0 sp_doorsClose_bot_Sprite.o
 .text          0x0200028c        0x0 sp_doorsClose_top_Sprite.o
 .text          0x0200028c        0x0 sp_doorsOpen_bot_Sprite.o
 .text          0x0200028c        0x0 sp_doorsOpen_top_Sprite.o
 .text          0x0200028c        0x0 sp_doors_Pal.o
 .text          0x0200028c        0x0 sp_hatman_Pal.o
 .text          0x0200028c        0x0 sp_hatman_bot_Sprite.o
 .text          0x0200028c        0x0 sp_hatman_top_Sprite.o
 .text          0x0200028c        0x0 sp_life_Pal.o
 .text          0x0200028c        0x0 sp_life_Sprite.o
 .text          0x0200028c        0x0 sp_man_1a_Sprite.o
 .text          0x0200028c        0x0 sp_man_1b_Sprite.o
 .text          0x0200028c        0x0 sp_man_Pal.o
 .text          0x0200028c        0x0 sp_man_die_Pal.o
 .text          0x0200028c        0x0 sp_man_dying_bot_Sprite.o
 .text          0x0200028c        0x0 sp_man_dying_top_Sprite.o
 .text          0x0200028c        0x0 sp_menuStart_Pal.o
 .text          0x0200028c        0x0 sp_menu_credits_1_Sprite.o
 .text          0x0200028c        0x0 sp_menu_credits_2_Sprite.o
 .text          0x0200028c        0x0 sp_menu_hiscores_1_Sprite.o
 .text          0x0200028c        0x0 sp_menu_hiscores_2_Sprite.o
 .text          0x0200028c        0x0 sp_menu_hiscores_3_Sprite.o
 .text          0x0200028c        0x0 sp_menu_start_1_Sprite.o
 .text          0x0200028c        0x0 sp_menu_start_2_Sprite.o
 .text          0x0200028c        0x0 sp_menu_start_3_Sprite.o
 .text          0x0200028c        0x0 sp_redBar_1_Sprite.o
 .text          0x0200028c        0x0 sp_redBar_2_Sprite.o
 .text          0x0200028c        0x0 sp_redBar_Pal.o
 .text          0x0200028c        0x0 sp_shoot_Sprite.o
 .text          0x0200028c        0x0 sp_woman_1a_Sprite.o
 .text          0x0200028c        0x0 sp_woman_1b_Sprite.o
 .text          0x0200028c        0x0 sp_woman_Pal.o
 .text          0x0200028c        0x0 sp_woman_die_Pal.o
 .text          0x0200028c        0x0 sp_woman_dying_bot_Sprite.o
 .text          0x0200028c        0x0 sp_woman_dying_top_Sprite.o
 .text          0x0200028c        0x0 soundbank_bin.o
 .text          0x0200028c        0x0 bg_Splash_developedBy_1.o
 .text          0x0200028c        0x0 bg_Splash_developedBy_2.o
 .text          0x0200028c        0x0 bg_palib_1.o
 .text          0x0200028c        0x0 bg_palib_2.o
 .text          0x0200028c        0x0 logo.o
 .text          0x0200028c        0x0 logo_wifi.o
 *fill*         0x0200028c        0x4 ff
 .text          0x02000290       0x98 utils.o
                0x02000290                debug
                0x020002d8                sleep
 .text          0x02000328        0x0 bg_bang.o
 .text          0x02000328        0x0 bg_boom.o
 .text          0x02000328        0x0 bg_desks.o
 .text          0x02000328        0x0 bg_doors.o
 .text          0x02000328        0x0 bg_duelStage.o
 .text          0x02000328        0x0 bg_intro.o
 .text          0x02000328        0x0 bg_mainMenu.o
 .text          0x02000328        0x0 bg_mainStage.o
 .text          0x02000328        0x0 mainFont.o
 .text          0x02000328       0xb8 AnimationManager.o
                0x02000328                AnimationManager::RegisterAnimation(unsigned char, unsigned char, unsigned char)
                0x02000354                AnimationManager::ReleaseMemory(unsigned char, bool)
 .text          0x020003e0       0x20 ConfigPerson.o
                0x020003e0                ConfigPerson::ConfigPerson()
                0x020003e4                ConfigPerson::ConfigPerson()
                0x020003e8                ConfigPerson::~ConfigPerson()
                0x020003ec                ConfigPerson::~ConfigPerson()
                0x020003f0                ConfigPerson::SetCode(unsigned char)
                0x020003f4                ConfigPerson::GetCode()
                0x020003f8                ConfigPerson::SetDoorOpenAmmount(unsigned char)
                0x020003fc                ConfigPerson::GetDoorOpenAmmount()
 .text          0x02000400      0x544 Door.o
                0x02000400                Door::Door(unsigned char)
                0x02000420                Door::Door(unsigned char)
                0x02000440                Door::~Door()
                0x02000444                Door::~Door()
                0x02000448                Door::SetWaiting(unsigned char)
                0x02000458                Door::SetPosition(unsigned char)
                0x02000460                Door::SetSpeed(unsigned char)
                0x02000468                Door::SetMoneyFlag(bool)
                0x02000470                Door::GetStatus()
                0x02000478                Door::GetOpenCounter()
                0x02000480                Door::GetPosition()
                0x02000488                Door::GetID()
                0x0200048c                Door::GetMoneyFlag()
                0x02000494                Door::DecWaiting(unsigned char)
                0x020004a8                Door::DecOpen(unsigned char)
                0x020004b8                Door::GetCurrentPerson()
                0x020004c0                Door::IsPersonBandit()
                0x020004cc                Door::IsPersonCustomer()
                0x020004e4                Door::IsPersonAlive()
                0x020004ec                Door::Reset()
                0x020004fc                Door::ShowPersonDying()
                0x02000514                Door::UpdateStatus()
                0x020005e4                Door::ShowPerson(ConfigPerson*)
                0x02000630                Door::Close()
                0x02000658                Door::Open()
                0x02000698                Door::ProcessHatman()
 *fill*         0x02000944        0x4 ff
 .text          0x02000948      0x558 DuelStage.o
                0x02000948                DuelStage::GetBanditStatusInstance()
                0x020009c8                DuelStage::UpdateBanditActiveCounter(stDuelBanditStatus*)
                0x020009f8                DuelStage::~DuelStage()
                0x02000a28                DuelStage::~DuelStage()
                0x02000a58                DuelStage::DrawBanditWithdrawal(unsigned char)
                0x02000a8c                DuelStage::DrawBanditDying(unsigned char, bool)
                0x02000b0c                DuelStage::ProcessPlayerInput(stDuelBanditStatus*, stReturnCode*)
                0x02000ba0                DuelStage::PrintCountDown()
                0x02000bf8                DuelStage::DrawStage()
                0x02000c48                DuelStage::RunDuel(stReturnCode*)
                0x02000d9c                DuelStage::DuelStage()
                0x02000dc8                DuelStage::DuelStage()
                0x02000df4                DuelStage::ClearStage()
 .text          0x02000ea0      0x4d0 Game.o
                0x02000ea0                Game::GetPlayerLostLife(stReturnCode*)
                0x02000ecc                Game::GetPlayerAdvancedLevel(stReturnCode*)
                0x02000ef0                Game::StopLevelMusic(unsigned char)
                0x02000f0c                Game::PlayLevelMusic(unsigned char)
                0x02000f2c                Game::PrintScore()
                0x02000f58                Game::PrintLifes()
                0x02000fa4                Game::ShowPhaseScreen()
                0x02001000                Game::ProcessReturningCodes(stReturnCode*)
                0x020010d8                Game::RunDuelStage(unsigned char)
                0x02001158                Game::Run(unsigned char)
                0x02001274                Game::~Game()
                0x02001298                Game::~Game()
                0x020012bc                Game::Game()
                0x02001314                Game::Game()
 .text          0x02001370      0x108 LevelManager.o
                0x02001370                LevelManager::LevelManager()
                0x02001374                LevelManager::LevelManager()
                0x02001378                LevelManager::~LevelManager()
                0x0200137c                LevelManager::~LevelManager()
                0x02001380                LevelManager::GetScoreFor(unsigned char, unsigned char)
                0x020013c4                LevelManager::SetCurrentLevel(unsigned char)
                0x020013c8                LevelManager::GetConfigPerson()
 .text          0x02001478      0xa90 MainStage.o
                0x02001478                MainStage::GetDoorByPressedButton(signed char, signed char, signed char, signed char)
                0x020014b8                MainStage::GetRedBarOffset(unsigned char)
                0x020014e0                MainStage::GetAllDoorsWithMoney()
                0x020014fc                MainStage::PlayDyingSFX(unsigned char)
                0x02001518                MainStage::DrawDollar(unsigned char)
                0x0200153c                MainStage::BlinkDollarSigns()
                0x02001590                MainStage::Scroll(signed char)
                0x020016ac                MainStage::DrawStage()
                0x02001718                MainStage::RegisterDoorMoney(unsigned char)
                0x02001754                MainStage::GetAllDoorsWaiting()
                0x02001784                MainStage::ProcessPlayerInput(stReturnCode*)
                0x020018f8                MainStage::ProcessDoors(stReturnCode*)
                0x020019f8                MainStage::~MainStage()
                0x02001a0c                MainStage::~MainStage()
                0x02001a20                MainStage::MainStage()
                0x02001b84                MainStage::ClearStage()
                0x02001c74                MainStage::ResetStage()
                0x02001da4                MainStage::MainStage()
 .text          0x02001f08      0x2e0 TextManager.o
                0x02001f08                TextManager::~TextManager()
                0x02001f0c                TextManager::~TextManager()
                0x02001f10                TextManager::InitSpriteFontArray(unsigned char, unsigned char)
                0x02001fdc                TextManager::TextManager(unsigned char, unsigned char)
                0x02002000                TextManager::TextManager(unsigned char, unsigned char)
                0x02002024                TextManager::PrintText(unsigned char, unsigned char, char*, bool)
                0x020021d8                TextManager::PrintText(unsigned char, unsigned char, char*)
 .text          0x020021e8     0x1b00 UIManager.o
                0x020021e8                UIManager::UIManager()
                0x020021ec                UIManager::UIManager()
                0x020021f0                UIManager::~UIManager()
                0x020021f4                UIManager::~UIManager()
                0x020021f8                UIManager::ShowSprite(unsigned char, unsigned char, unsigned char)
                0x02002220                UIManager::HideSprite(unsigned char)
                0x0200224c                UIManager::DrawPerson(unsigned char, unsigned char)
                0x020022c4                UIManager::DrawPersonAssault(unsigned char, unsigned char)
                0x020022c8                UIManager::DrawGameOverScreen()
                0x020022cc                UIManager::DrawMenuOption(unsigned char)
                0x02002564                UIManager::FadeIn()
                0x020025a4                UIManager::PlayLostLifeAnimation(unsigned char)
                0x0200263c                UIManager::DrawShoot(unsigned char)
                0x020026d0                UIManager::PlayCloseDoorAnim(unsigned char)
                0x020027d0                UIManager::PlayOpenDoorAnim(unsigned char)
                0x020028a0                UIManager::WriteConsiderations()
                0x020028dc                UIManager::ResetDoorGraphics(unsigned char, unsigned char)
                0x0200299c                UIManager::FadeOut()
                0x020029d8                UIManager::DrawBangScreen()
                0x02002a78                UIManager::DrawBoomScreen()
                0x02002b18                UIManager::DrawIntroductionAnimation()
                0x02002c24                UIManager::DrawSplashScreens()
                0x02002d94                UIManager::LoadHatmanAnim(unsigned char)
                0x02002e78                UIManager::PlayPersonDyingAnim(unsigned char, unsigned char)
                0x020030f4                UIManager::LoadSprites(signed char)
 .text          0x02003ce8      0x278 main.o
                0x02003ce8                showCredits()
                0x02003cec                showHiscores()
                0x02003d14                debug(char*, unsigned int)
                0x02003d5c                sleep(double)
                0x02003d9c                showMenu()
                0x02003ed8                main
 .text          0x02003f60       0xbc d:/devkitPro/PAlib/lib\libpa9.a(PA.o)
                0x02003f60                PA_SetBrightness
                0x02003fa0                PA_Nothing
                0x02003fa4                PA_CheckLid
 .text          0x0200401c      0x350 d:/devkitPro/PAlib/lib\libpa9.a(PA_BgEasy.o)
                0x0200401c                PA_StoreEasyBgInfos
                0x02004058                PA_EasyBgLoadEx
                0x0200424c                PA_EasyBgScrollY
                0x020042dc                PA_EasyBgScrollX
 .text          0x0200436c      0xeb8 d:/devkitPro/PAlib/lib\libpa9.a(PA_BgLargeMap.o)
                0x0200436c                PA_LargeScrollXN
                0x0200455c                PA_LargeScrollYN
                0x02004744                PA_InfLargeScrollXN
                0x020049ac                PA_InfLargeScrollYN
                0x02004bfc                PA_UpdateTileEngineX
                0x02004d60                PA_UpdateTileEngineY
                0x02004ebc                PA_InfTilesScrollX
                0x02004f50                PA_InfTilesScrollY
                0x02004fe0                PA_InitLargeBg
 .text          0x02005224      0x6c8 d:/devkitPro/PAlib/lib\libpa9.a(PA_BgTiles.o)
                0x02005224                PA_ReLoadBgTiles
                0x0200526c                PA_InitBg
                0x02005354                PA_DeleteTiles
                0x020053e8                PA_DeleteMap
                0x02005468                PA_LoadBgMap
                0x020055b0                PA_LoadBgTilesEx
                0x020057c8                PA_ResetBgSysScreen
                0x020058dc                PA_ResetBgSys
 .text          0x020058ec      0x2cc d:/devkitPro/PAlib/lib\libpa9.a(PA_Draw.o)
                0x020058ec                PA_LoadBmpToBuffer
 .text          0x02005bb8      0x2f0 d:/devkitPro/PAlib/lib\libpa9.a(PA_Draw8bit.o)
                0x02005bb8                PA_8bitSwapBuffer
                0x02005c1c                PA_Default8bitInit
                0x02005cdc                PA_Init8bitDblBuffer
                0x02005d88                PA_InitBig8bitBg
                0x02005e18                PA_Init8bitBg
 .text          0x02005ea8       0x84 d:/devkitPro/PAlib/lib\libpa9.a(PA_Error.o)
                0x02005ea8                PA_Error
                0x02005ec8                _PA_Assert
 *fill*         0x02005f2c        0x4 ff
 .text          0x02005f30      0x3e8 d:/devkitPro/PAlib/lib\libpa9.a(PA_Gif.o)
                0x02005f30                CopyLine
                0x02005f44                CopyLine2
                0x02005f64                DGifGetLineByte
                0x02005fdc                readFunc
                0x02005ff4                DecodeGif
 .text          0x02006318      0x2a0 d:/devkitPro/PAlib/lib\libpa9.a(PA_Inits.o)
                0x02006318                PA_Init2D
                0x02006378                PA_Init
 .text          0x020065b8       0x78 d:/devkitPro/PAlib/lib\libpa9.a(PA_Interrupt.o)
                0x020065b8                PA_VBLCountersReset
                0x020065d8                PA_vblFunc
 .text          0x02006630      0x20c d:/devkitPro/PAlib/lib\libpa9.a(PA_Keys.o)
                0x02006630                PA_UpdateStylus
                0x020066f0                PA_UpdatePad
 .text          0x0200683c      0x15c d:/devkitPro/PAlib/lib\libpa9.a(PA_Math.o)
                0x0200683c                PA_AdjustAngle
 .text          0x02006998      0x840 d:/devkitPro/PAlib/lib\libpa9.a(PA_NewBg.o)
                0x02006998                PA_Add16cFont
                0x020069e8                PA_AddBitmapFont
                0x02006a38                PA_LoadKeyboard
                0x02006b8c                PA_LoadText
                0x02006cbc                PA_LoadBackground
 .text          0x020071d8      0x230 d:/devkitPro/PAlib/lib\libpa9.a(PA_Palette.o)
                0x020071d8                PA_LoadBgPalN
                0x020072a4                PA_InitBgExtPal
                0x02007304                PA_LoadSpriteExtPal
                0x020073b4                PA_InitSpriteExtPal
 .text          0x02007408       0xc4 d:/devkitPro/PAlib/lib\libpa9.a(PA_RTC.o)
                0x02007408                PA_UpdateUserInfo
                0x0200748c                PA_UpdateRTC
 .text          0x020074cc      0x4f4 d:/devkitPro/PAlib/lib\libpa9.a(PA_Reco.o)
                0x020074cc                PA_StylusLine
                0x02007630                PA_AnalyzeShape
                0x0200793c                PA_CheckLetter
 .text          0x020079c0      0x72c d:/devkitPro/PAlib/lib\libpa9.a(PA_Sprite.o)
                0x020079c0                PA_InitSpriteExtPrio
                0x020079f4                PA_ResetSpriteSysScreen
                0x02007b3c                PA_ResetSpriteSys
                0x02007b58                PA_DeleteGfx
                0x02007d24                PA_DeleteSprite
                0x02007d78                PA_InitSpriteDraw
                0x02007ddc                PA_UpdateOAM
                0x02007f38                PA_UpdateSpriteVBL
                0x02007f70                PA_CreateGfx
 .text          0x020080ec      0x3c8 d:/devkitPro/PAlib/lib\libpa9.a(PA_SpriteAnim.o)
                0x020080ec                PA_StartSpriteAnimEx
                0x020082bc                PA_UpdateSpriteAnims
 .text          0x020084b4      0x1a8 d:/devkitPro/PAlib/lib\libpa9.a(PA_Stuff.o)
                0x020084b4                PA_SetVideoMode
                0x020084d8                PA_Locate
 *fill*         0x0200865c        0x4 ff
 .text          0x02008660      0xa98 d:/devkitPro/PAlib/lib\libpa9.a(PA_Text.o)
                0x02008660                PA_OutputSimpleText
                0x02008748                PA_ClearTextBg
                0x020087e8                PA_OutputText
                0x02008f88                PA_CreateTextPal
                0x02009030                PA_LoadDefaultText
 .text          0x020090f8     0x1188 d:/devkitPro/PAlib/lib\libpa9.a(PA_Text8bit.o)
                0x020090f8                NoLetter
                0x020090fc                pa_8bitTextDecompress
                0x02009178                PA_8bitText
                0x02009228                PA_CenterSmartText
                0x0200928c                Letter
                0x02009664                RotLetter2
                0x02009a94                RotLetter
                0x02009e9c                TranspLetter
 .text          0x0200a280      0x528 d:/devkitPro/PAlib/lib\libpa9.a(PA_TextBits.o)
                0x0200a280                PA_DoAlign
                0x0200a42c                PA_DoLetterPos
 .text          0x0200a7a8      0xdb8 d:/devkitPro/PAlib/lib\libpa9.a(dgif_lib.o)
                0x0200a7a8                DGifOpenFileName
                0x0200a7ac                DGifOpenFileHandle
                0x0200abec                DGifGetCodeNext
                0x0200ac7c                DGifGetLZCodes
                0x0200acec                DGifGetCode
                0x0200ad10                DGifGetPixel
                0x0200ad7c                DGifGetLine
                0x0200ade4                DGifGetExtensionNext
                0x0200ae70                DGifGetExtension
                0x0200af28                DGifGetRecordType
                0x0200afb0                DGifCloseFile
                0x0200b024                DGifGetScreenDesc
                0x0200b144                DGifGetImageDesc
                0x0200b3a0                DGifSlurp
                0x0200b4a0                DGifOpen
 .text          0x0200b560       0x58 d:/devkitPro/PAlib/lib\libpa9.a(gif_err.o)
                0x0200b560                GifLastError
                0x0200b570                PrintGifError
 .text          0x0200b5b8      0x4b0 d:/devkitPro/PAlib/lib\libpa9.a(gifalloc.o)
                0x0200b5b8                BitSize
                0x0200b5d0                ApplyTranslation
                0x0200b5f0                MakeExtension
                0x0200b5f4                FreeExtension
                0x0200b63c                FreeMapObject
                0x0200b654                FreeSavedImages
                0x0200b6b8                FreeLastSavedImage
                0x0200b6f8                AddExtensionBlock
                0x0200b758                MakeMapObject
                0x0200b7c0                MakeSavedImage
                0x0200b89c                UnionColorMap
 .text          0x0200ba68        0x0 d:/devkitPro/PAlib/lib\libpa9.a(PA_TiledFont.o)
 .text          0x0200ba68        0x0 d:/devkitPro/PAlib/lib\libpa9.a(PA_BmpFont0.o)
 .text          0x0200ba68        0x0 d:/devkitPro/PAlib/lib\libpa9.a(PA_BmpFont1.o)
 .text          0x0200ba68        0x0 d:/devkitPro/PAlib/lib\libpa9.a(PA_BmpFont2.o)
 .text          0x0200ba68        0x0 d:/devkitPro/PAlib/lib\libpa9.a(PA_BmpFont3.o)
 .text          0x0200ba68        0x0 d:/devkitPro/PAlib/lib\libpa9.a(PA_BmpFont4.o)
 .text          0x0200ba68        0x0 d:/devkitPro/PAlib/lib\libpa9.a(PA_TiledFont_Map.bin.o)
 .text          0x0200ba68        0x0 d:/devkitPro/PAlib/lib\libpa9.a(PA_TiledFont_Pal.bin.o)
 .text          0x0200ba68        0x0 d:/devkitPro/PAlib/lib\libpa9.a(PA_TiledFont_Tiles.bin.o)
 .text          0x0200ba68        0x0 d:/devkitPro/PAlib/lib\libpa9.a(PA_BmpFont0_Map.bin.o)
 .text          0x0200ba68        0x0 d:/devkitPro/PAlib/lib\libpa9.a(PA_BmpFont0_Sizes.bin.o)
 .text          0x0200ba68        0x0 d:/devkitPro/PAlib/lib\libpa9.a(PA_BmpFont0_Tiles.bin.o)
 .text          0x0200ba68        0x0 d:/devkitPro/PAlib/lib\libpa9.a(PA_BmpFont1_Map.bin.o)
 .text          0x0200ba68        0x0 d:/devkitPro/PAlib/lib\libpa9.a(PA_BmpFont1_Sizes.bin.o)
 .text          0x0200ba68        0x0 d:/devkitPro/PAlib/lib\libpa9.a(PA_BmpFont1_Tiles.bin.o)
 .text          0x0200ba68        0x0 d:/devkitPro/PAlib/lib\libpa9.a(PA_BmpFont2_Map.bin.o)
 .text          0x0200ba68        0x0 d:/devkitPro/PAlib/lib\libpa9.a(PA_BmpFont2_Sizes.bin.o)
 .text          0x0200ba68        0x0 d:/devkitPro/PAlib/lib\libpa9.a(PA_BmpFont2_Tiles.bin.o)
 .text          0x0200ba68        0x0 d:/devkitPro/PAlib/lib\libpa9.a(PA_BmpFont3_Map.bin.o)
 .text          0x0200ba68        0x0 d:/devkitPro/PAlib/lib\libpa9.a(PA_BmpFont3_Sizes.bin.o)
 .text          0x0200ba68        0x0 d:/devkitPro/PAlib/lib\libpa9.a(PA_BmpFont3_Tiles.bin.o)
 .text          0x0200ba68        0x0 d:/devkitPro/PAlib/lib\libpa9.a(PA_BmpFont4_Map.bin.o)
 .text          0x0200ba68        0x0 d:/devkitPro/PAlib/lib\libpa9.a(PA_BmpFont4_Sizes.bin.o)
 .text          0x0200ba68        0x0 d:/devkitPro/PAlib/lib\libpa9.a(PA_BmpFont4_Tiles.bin.o)
 .text          0x0200ba68      0x6d0 d:/devkitPro/PAlib/lib\libpa9.a(PA_16c.o)
                0x0200ba68                PA_16c8X8Color
                0x0200bbc0                PA_16cErase
                0x0200bbfc                PA_16cClearZone
                0x0200bd8c                pa_16cTextDecompress
                0x0200be18                PA_16cText
                0x0200bf98                PA_Init16cBgEx
 .text          0x0200c138      0x158 d:/devkitPro/PAlib/lib\libpa9.a(PA_BgRot.o)
                0x0200c138                PA_LoadRotBgMap
 .text          0x0200c290       0x50 d:/devkitPro/PAlib/lib\libpa9.a(PA_Fifo.o)
                0x0200c290                PA_FifoMsgHandler
                0x0200c2cc                PA_InitFifo
 .text          0x0200c2e0      0x640 d:/devkitPro/PAlib/lib\libpa9.a(PA_Keyboard.o)
                0x0200c2e0                PA_ReloadKeyboardCol
                0x0200c3c0                PA_ChangeKeyboardType
                0x0200c558                PA_SetLetterPal
                0x0200c690                PA_CheckKeyboard
                0x0200c7b4                PA_LoadDefaultKeyboard
 .text          0x0200c920      0x1ec d:/devkitPro/PAlib/lib\libpa9.a(PA_PaletteEx.o)
                0x0200c920                PA_CreatePalBright
                0x0200c9e4                PA_CreatePalTransition
                0x0200ca4c                PA_3DSetSpritePalCol
                0x0200ca74                PA_SetSpritePalCol
                0x0200cabc                PA_SetBgPalNCol
 .text          0x0200cb0c        0x0 d:/devkitPro/PAlib/lib\libpa9.a(keyboard.map.o)
 .text          0x0200cb0c        0x0 d:/devkitPro/PAlib/lib\libpa9.a(keyboard.pal.o)
 .text          0x0200cb0c        0x0 d:/devkitPro/PAlib/lib\libpa9.a(keyboard.raw.o)
 .text          0x0200cb0c       0xfc d:/devkitPro/libnds/lib\libnds9.a(keys.o)
                0x0200cb0c                scanKeys
                0x0200cb7c                keysHeld
                0x0200cb88                keysDown
                0x0200cb98                keysDownRepeat
                0x0200cba8                keysSetRepeat
                0x0200cbc0                keysUp
                0x0200cbd0                keysCurrent
 .text          0x0200cc08       0xdc d:/devkitPro/libnds/lib\libnds9.a(system.o)
                0x0200cc08                ledBlink
                0x0200cc1c                powerOff
                0x0200cc48                powerOn
                0x0200cc78                systemSleep
                0x0200cc90                powerValueHandler
                0x0200cca0                systemMsgHandler
 .text          0x0200cce4       0x4c d:/devkitPro/libnds/lib\libnds9.a(touch.o)
                0x0200cce4                touchRead
                0x0200cd0c                touchReadXY
 .text          0x0200cd30      0x144 d:/devkitPro/libnds/lib\libnds9.a(video.o)
                0x0200cd30                vramSetMainBanks
                0x0200cd74                vramRestoreMainBanks
                0x0200cd80                vramSetBankA
                0x0200cd94                vramSetBankB
                0x0200cda8                vramSetBankC
                0x0200cdbc                vramSetBankD
                0x0200cdd0                vramSetBankE
                0x0200cde4                vramSetBankF
                0x0200cdf8                vramSetBankG
                0x0200ce0c                vramSetBankH
                0x0200ce20                vramSetBankI
                0x0200ce34                setBrightness
 .text          0x0200ce74       0xf4 d:/devkitPro/libnds/lib\libnds9.a(initSystem.o)
                0x0200ce74                initSystem
 .text          0x0200cf68      0xcd0 d:/devkitPro/libnds/lib\libnds9.a(fifosystem.o)
                0x0200d0fc                fifoSendAddress
                0x0200d134                fifoSendValue32
                0x0200d17c                fifoGetAddress
                0x0200d1ec                fifoSetAddressHandler
                0x0200d260                fifoGetValue32
                0x0200d2d0                fifoSetValue32Handler
                0x0200d344                fifoCheckAddress
                0x0200d368                fifoCheckDatamsg
                0x0200d38c                fifoCheckValue32
                0x0200d454                fifoInit
                0x0200d614                fifoGetDatamsg
                0x0200db20                fifoSetDatamsgHandler
                0x0200dbc8                fifoSendDatamsg
 .text          0x0200dc38      0x1d8 d:/devkitPro/libnds/lib\libnds9.a(interrupts.o)
                0x0200dc38                irqDummy
                0x0200dc3c                irqSet
                0x0200dca8                irqInit
                0x0200dcf4                irqInitHandler
                0x0200dd24                irqEnable
                0x0200dd84                irqDisable
                0x0200dde4                irqClear
 .text          0x0200de10        0x4 d:/devkitPro/libnds/lib\libnds9.a(libnds_exit.o)
                0x0200de10                __libnds_exit
 .text          0x0200de14       0x70 d:/devkitPro/libnds/lib\libnds9.a(dcache.o)
                0x0200de14                DC_FlushAll
                0x0200de40                DC_FlushRange
                0x0200de5c                DC_InvalidateAll
                0x0200de68                DC_InvalidateRange
 .text          0x0200de84      0x1d4 d:/devkitPro/libnds/lib\libnds9.a(mpu_setup.o)
                0x0200de84                __libnds_mpu_setup
                0x0200dfe4                memCached
                0x0200dffc                memUncached
 *fill*         0x0200e058        0x8 ff
 .text          0x0200e060       0x70 d:/devkitPro/libnds/lib\libnds9.a(biosCalls.o)
                0x0200e060                swiSoftReset
                0x0200e064                swiDelay
                0x0200e068                swiIntrWait
                0x0200e06c                swiWaitForVBlank
                0x0200e070                swiSleep
                0x0200e074                swiChangeSoundBias
                0x0200e078                swiDivide
                0x0200e07c                swiRemainder
                0x0200e082                swiDivMod
                0x0200e08e                swiCopy
                0x0200e092                swiFastCopy
                0x0200e096                swiSqrt
                0x0200e09a                swiCRC16
                0x0200e09e                swiIsDebugger
                0x0200e0a2                swiUnpackBits
                0x0200e0a6                swiDecompressLZSSWram
                0x0200e0aa                swiDecompressLZSSVram
                0x0200e0ae                swiDecompressHuffman
                0x0200e0b2                swiDecompressRLEWram
                0x0200e0b6                swiDecompressRLEVram
                0x0200e0ba                swiWaitForIRQ
                0x0200e0be                swiDecodeDelta8
                0x0200e0c2                swiDecodeDelta16
                0x0200e0c6                swiSetHaltCR
 .text          0x0200e0d0        0x0 d:/devkitPro/libnds/lib\libnds9.a(interruptDispatcher.o)
 .text          0x0200e0d0      0x240 d:/devkitPro/libnds/lib\libmm9.a(mm_comms.o)
                0x0200e0d0                mmSetupComms
                0x0200e112                mmSendBank
                0x0200e11c                mmLockChannels
                0x0200e122                mmUnlockChannels
                0x0200e128                mmStart
                0x0200e132                mmPause
                0x0200e136                mmResume
                0x0200e13a                mmStop
                0x0200e13e                mmPosition
                0x0200e142                mmJingle
                0x0200e146                mmSetModuleVolume
                0x0200e14a                mmSetJingleVolume
                0x0200e14e                mmSetModuleTempo
                0x0200e152                mmSetModulePitch
                0x0200e156                mmSetEffectsVolume
                0x0200e15a                mmSelectMode
                0x0200e15e                mmStreamBegin
                0x0200e172                mmStreamEnd
                0x0200e1c8                mmEffect
                0x0200e1ec                mmEffectVolume
                0x0200e1f0                mmEffectPanning
                0x0200e1f4                mmEffectRate
                0x0200e1fe                mmEffectScaleRate
                0x0200e208                mmEffectRelease
                0x0200e20e                mmEffectCancel
                0x0200e214                mmEffectEx
                0x0200e252                mmEffectCancelAll
                0x0200e256                mmReverbEnable
                0x0200e25a                mmReverbDisable
                0x0200e25e                mmReverbConfigure
                0x0200e2ba                mmReverbStart
                0x0200e2be                mmReverbStop
 .text          0x0200e310      0x108 d:/devkitPro/libnds/lib\libmm9.a(mm_main9.o)
                0x0200e310                mmActive
                0x0200e316                mmSetEventHandler
                0x0200e31c                mmInit
                0x0200e346                mmInitDefault
                0x0200e390                mmInitDefaultMem
                0x0200e3b2                mmSuspendIRQ_t
                0x0200e3d0                mmRestoreIRQ_t
 .text          0x0200e418      0x120 d:/devkitPro/libnds/lib\libmm9.a(mm_memory.o)
                0x0200e418                mmLoad
                0x0200e468                mmUnload
                0x0200e4c0                mmLoadEffect
                0x0200e4f8                mmUnloadEffect
 .text          0x0200e538      0x100 d:/devkitPro/libnds/lib\libmm9.a(mm_soundbank.o)
                0x0200e538                mmSoundBankInMemory
                0x0200e540                mmSoundBankInFiles
                0x0200e552                mmSetCustomSoundBankHandler
                0x0200e57e                mmsHandleFileOp
 .text          0x0200e638       0x3c d:/devkitPro/libnds/lib\libmm9.a(mm_flusher.o)
                0x0200e638                mmFlushBank
 .text          0x0200e674        0x0 d:/devkitpro/devkitarm/bin/../lib/gcc/arm-eabi/4.4.2/../../../../arm-eabi/lib/thumb\libstdc++.a(atexit_arm.o)
 .text          0x0200e674       0x8c d:/devkitpro/devkitarm/bin/../lib/gcc/arm-eabi/4.4.2/thumb\libgcc.a(_udivsi3.o)
                0x0200e674                __aeabi_uidiv
                0x0200e674                __udivsi3
                0x0200e6f0                __aeabi_uidivmod
 .text          0x0200e700       0xa4 d:/devkitpro/devkitarm/bin/../lib/gcc/arm-eabi/4.4.2/thumb\libgcc.a(_divsi3.o)
                0x0200e700                __divsi3
                0x0200e700                __aeabi_idiv
                0x0200e794                __aeabi_idivmod
 .text          0x0200e7a4        0x4 d:/devkitpro/devkitarm/bin/../lib/gcc/arm-eabi/4.4.2/thumb\libgcc.a(_dvmd_tls.o)
                0x0200e7a4                __div0
                0x0200e7a4                __aeabi_idiv0
                0x0200e7a4                __aeabi_ldiv0
 .text          0x0200e7a8      0x41c d:/devkitpro/devkitarm/bin/../lib/gcc/arm-eabi/4.4.2/thumb\libgcc.a(_arm_addsubdf3.o)
                0x0200e7a8                __aeabi_drsub
                0x0200e7b0                __aeabi_dsub
                0x0200e7b0                __subdf3
                0x0200e7b4                __aeabi_dadd
                0x0200e7b4                __adddf3
                0x0200eac4                __floatunsidf
                0x0200eac4                __aeabi_ui2d
                0x0200eae8                __floatsidf
                0x0200eae8                __aeabi_i2d
                0x0200eb10                __aeabi_f2d
                0x0200eb10                __extendsfdf2
                0x0200eb50                __floatundidf
                0x0200eb50                __aeabi_ul2d
                0x0200eb64                __floatdidf
                0x0200eb64                __aeabi_l2d
 .text          0x0200ebc4      0x49c d:/devkitpro/devkitarm/bin/../lib/gcc/arm-eabi/4.4.2/thumb\libgcc.a(_arm_muldivdf3.o)
                0x0200ebc4                __aeabi_dmul
                0x0200ebc4                __muldf3
                0x0200ee54                __divdf3
                0x0200ee54                __aeabi_ddiv
 .text          0x0200f060      0x140 d:/devkitpro/devkitarm/bin/../lib/gcc/arm-eabi/4.4.2/thumb\libgcc.a(_arm_cmpdf2.o)
                0x0200f060                __gtdf2
                0x0200f060                __gedf2
                0x0200f068                __ltdf2
                0x0200f068                __ledf2
                0x0200f070                __nedf2
                0x0200f070                __eqdf2
                0x0200f070                __cmpdf2
                0x0200f0f4                __aeabi_cdrcmple
                0x0200f110                __aeabi_cdcmpeq
                0x0200f110                __aeabi_cdcmple
                0x0200f128                __aeabi_dcmpeq
                0x0200f140                __aeabi_dcmplt
                0x0200f158                __aeabi_dcmple
                0x0200f170                __aeabi_dcmpge
                0x0200f188                __aeabi_dcmpgt
 .text          0x0200f1a0       0x5c d:/devkitpro/devkitarm/bin/../lib/gcc/arm-eabi/4.4.2/thumb\libgcc.a(_arm_fixdfsi.o)
                0x0200f1a0                __aeabi_d2iz
                0x0200f1a0                __fixdfsi
 .text          0x0200f1fc      0x2ac d:/devkitpro/devkitarm/bin/../lib/gcc/arm-eabi/4.4.2/thumb\libgcc.a(_arm_addsubsf3.o)
                0x0200f1fc                __aeabi_frsub
                0x0200f204                __subsf3
                0x0200f204                __aeabi_fsub
                0x0200f208                __aeabi_fadd
                0x0200f208                __addsf3
                0x0200f3c4                __aeabi_ui2f
                0x0200f3c4                __floatunsisf
                0x0200f3cc                __aeabi_i2f
                0x0200f3cc                __floatsisf
                0x0200f3ec                __aeabi_ul2f
                0x0200f3ec                __floatundisf
                0x0200f3fc                __aeabi_l2f
                0x0200f3fc                __floatdisf
 .text          0x0200f4a8      0x2f8 d:/devkitpro/devkitarm/bin/../lib/gcc/arm-eabi/4.4.2/thumb\libgcc.a(_arm_muldivsf3.o)
                0x0200f4a8                __mulsf3
                0x0200f4a8                __aeabi_fmul
                0x0200f640                __aeabi_fdiv
                0x0200f640                __divsf3
 .text          0x0200f7a0       0x70 d:/devkitpro/devkitarm/bin/../lib/gcc/arm-eabi/4.4.2/thumb\libgcc.a(_muldi3.o)
                0x0200f7a0                __muldi3
                0x0200f7a0                __aeabi_lmul
 .text          0x0200f810       0x1c d:/devkitpro/devkitarm/bin/../lib/gcc/arm-eabi/4.4.2/../../../../arm-eabi/lib/thumb\libg.a(lib_a-calloc.o)
                0x0200f810                calloc
 .text          0x0200f82c       0x5c d:/devkitpro/devkitarm/bin/../lib/gcc/arm-eabi/4.4.2/../../../../arm-eabi/lib/thumb\libg.a(lib_a-callocr.o)
                0x0200f82c                _calloc_r
 .text          0x0200f888       0x18 d:/devkitpro/devkitarm/bin/../lib/gcc/arm-eabi/4.4.2/../../../../arm-eabi/lib/thumb\libg.a(lib_a-cxa_atexit.o)
                0x0200f888                __cxa_atexit
 .text          0x0200f8a0       0xc0 d:/devkitpro/devkitarm/bin/../lib/gcc/arm-eabi/4.4.2/../../../../arm-eabi/lib/thumb\libg.a(lib_a-fclose.o)
                0x0200f8a0                _fclose_r
                0x0200f944                fclose
 .text          0x0200f960      0x148 d:/devkitpro/devkitarm/bin/../lib/gcc/arm-eabi/4.4.2/../../../../arm-eabi/lib/thumb\libg.a(lib_a-fflush.o)
                0x0200f960                _fflush_r
                0x0200fa74                fflush
 .text          0x0200faa8      0x1e0 d:/devkitpro/devkitarm/bin/../lib/gcc/arm-eabi/4.4.2/../../../../arm-eabi/lib/thumb\libg.a(lib_a-findfp.o)
                0x0200faa8                __sfp_lock_acquire
                0x0200faac                __sfp_lock_release
                0x0200fab0                __sinit_lock_acquire
                0x0200fab4                __sinit_lock_release
                0x0200fac0                __fp_unlock_all
                0x0200fadc                __fp_lock_all
                0x0200faf8                _cleanup_r
                0x0200fb0c                _cleanup
                0x0200fb6c                __sinit
                0x0200fbc8                __sfmoreglue
                0x0200fbf8                __sfp
 .text          0x0200fc88       0xb0 d:/devkitpro/devkitarm/bin/../lib/gcc/arm-eabi/4.4.2/../../../../arm-eabi/lib/thumb\libg.a(lib_a-fopen.o)
                0x0200fc88                _fopen_r
                0x0200fd1c                fopen
 .text          0x0200fd38       0x3c d:/devkitpro/devkitarm/bin/../lib/gcc/arm-eabi/4.4.2/../../../../arm-eabi/lib/thumb\libg.a(lib_a-fprintf.o)
                0x0200fd38                fprintf
                0x0200fd5c                _fprintf_r
 .text          0x0200fd74      0x19c d:/devkitpro/devkitarm/bin/../lib/gcc/arm-eabi/4.4.2/../../../../arm-eabi/lib/thumb\libg.a(lib_a-fread.o)
                0x0200fd74                _fread_r
                0x0200fee8                fread
 .text          0x0200ff10      0x250 d:/devkitpro/devkitarm/bin/../lib/gcc/arm-eabi/4.4.2/../../../../arm-eabi/lib/thumb\libg.a(lib_a-freer.o)
                0x0200ff10                _malloc_trim_r
                0x0200ffb4                _free_r
 .text          0x02010160      0x330 d:/devkitpro/devkitarm/bin/../lib/gcc/arm-eabi/4.4.2/../../../../arm-eabi/lib/thumb\libg.a(lib_a-fseek.o)
                0x02010160                _fseek_r
                0x0201046c                fseek
 .text          0x02010490       0xc4 d:/devkitpro/devkitarm/bin/../lib/gcc/arm-eabi/4.4.2/../../../../arm-eabi/lib/thumb\libg.a(lib_a-fwalk.o)
                0x02010490                _fwalk_reent
                0x020104f4                _fwalk
 .text          0x02010554       0x18 d:/devkitpro/devkitarm/bin/../lib/gcc/arm-eabi/4.4.2/../../../../arm-eabi/lib/thumb\libg.a(lib_a-gmtime.o)
                0x02010554                gmtime
 .text          0x0201056c       0x10 d:/devkitpro/devkitarm/bin/../lib/gcc/arm-eabi/4.4.2/../../../../arm-eabi/lib/thumb\libg.a(lib_a-gmtime_r.o)
                0x0201056c                gmtime_r
 .text          0x0201057c        0x0 d:/devkitpro/devkitarm/bin/../lib/gcc/arm-eabi/4.4.2/../../../../arm-eabi/lib/thumb\libg.a(lib_a-impure.o)
 .text          0x0201057c       0x84 d:/devkitpro/devkitarm/bin/../lib/gcc/arm-eabi/4.4.2/../../../../arm-eabi/lib/thumb\libg.a(lib_a-init.o)
                0x0201057c                __libc_fini_array
                0x020105ac                __libc_init_array
 .text          0x02010600      0x28c d:/devkitpro/devkitarm/bin/../lib/gcc/arm-eabi/4.4.2/../../../../arm-eabi/lib/thumb\libg.a(lib_a-locale.o)
                0x02010600                __locale_charset
                0x0201060c                _localeconv_r
                0x02010614                localeconv
                0x0201061c                _setlocale_r
                0x02010870                setlocale
 .text          0x0201088c       0xe8 d:/devkitpro/devkitarm/bin/../lib/gcc/arm-eabi/4.4.2/../../../../arm-eabi/lib/thumb\libg.a(lib_a-makebuf.o)
                0x0201088c                __smakebuf_r
 .text          0x02010974       0x30 d:/devkitpro/devkitarm/bin/../lib/gcc/arm-eabi/4.4.2/../../../../arm-eabi/lib/thumb\libg.a(lib_a-malloc.o)
                0x02010974                free
                0x0201098c                malloc
 .text          0x020109a4      0x504 d:/devkitpro/devkitarm/bin/../lib/gcc/arm-eabi/4.4.2/../../../../arm-eabi/lib/thumb\libg.a(lib_a-mallocr.o)
                0x020109a4                _malloc_r
 .text          0x02010ea8       0x58 d:/devkitpro/devkitarm/bin/../lib/gcc/arm-eabi/4.4.2/../../../../arm-eabi/lib/thumb\libg.a(lib_a-memcmp.o)
                0x02010ea8                memcmp
 .text          0x02010f00       0x80 d:/devkitpro/devkitarm/bin/../lib/gcc/arm-eabi/4.4.2/../../../../arm-eabi/lib/thumb\libg.a(lib_a-memcpy.o)
                0x02010f00                memcpy
 .text          0x02010f80       0x94 d:/devkitpro/devkitarm/bin/../lib/gcc/arm-eabi/4.4.2/../../../../arm-eabi/lib/thumb\libg.a(lib_a-memset.o)
                0x02010f80                memset
 .text          0x02011014      0x4b0 d:/devkitpro/devkitarm/bin/../lib/gcc/arm-eabi/4.4.2/../../../../arm-eabi/lib/thumb\libg.a(lib_a-mktm_r.o)
                0x02011014                __tzcalc_limits
                0x02011198                _mktm_r
 .text          0x020114c4        0x8 d:/devkitpro/devkitarm/bin/../lib/gcc/arm-eabi/4.4.2/../../../../arm-eabi/lib/thumb\libg.a(lib_a-mlock.o)
                0x020114c4                __malloc_lock
                0x020114c8                __malloc_unlock
 .text          0x020114cc       0x1c d:/devkitpro/devkitarm/bin/../lib/gcc/arm-eabi/4.4.2/../../../../arm-eabi/lib/thumb\libg.a(lib_a-realloc.o)
                0x020114cc                realloc
 .text          0x020114e8      0x354 d:/devkitpro/devkitarm/bin/../lib/gcc/arm-eabi/4.4.2/../../../../arm-eabi/lib/thumb\libg.a(lib_a-reallocr.o)
                0x020114e8                _realloc_r
 .text          0x0201183c      0x128 d:/devkitpro/devkitarm/bin/../lib/gcc/arm-eabi/4.4.2/../../../../arm-eabi/lib/thumb\libg.a(lib_a-refill.o)
                0x0201183c                __srefill_r
 .text          0x02011964       0x84 d:/devkitpro/devkitarm/bin/../lib/gcc/arm-eabi/4.4.2/../../../../arm-eabi/lib/thumb\libg.a(lib_a-sprintf.o)
                0x02011964                sprintf
                0x020119a8                _sprintf_r
 .text          0x020119e8       0xa8 d:/devkitpro/devkitarm/bin/../lib/gcc/arm-eabi/4.4.2/../../../../arm-eabi/lib/thumb\libg.a(lib_a-stdio.o)
                0x020119e8                __sclose
                0x020119f8                __sseek
                0x02011a28                __swrite
                0x02011a64                __sread
 .text          0x02011a90       0x88 d:/devkitpro/devkitarm/bin/../lib/gcc/arm-eabi/4.4.2/../../../../arm-eabi/lib/thumb\libg.a(lib_a-strcasecmp.o)
                0x02011a90                strcasecmp
 .text          0x02011b18       0x50 d:/devkitpro/devkitarm/bin/../lib/gcc/arm-eabi/4.4.2/../../../../arm-eabi/lib/thumb\libg.a(lib_a-strcat.o)
                0x02011b18                strcat
 .text          0x02011b68       0x5c d:/devkitpro/devkitarm/bin/../lib/gcc/arm-eabi/4.4.2/../../../../arm-eabi/lib/thumb\libg.a(lib_a-strcmp.o)
                0x02011b68                strcmp
 .text          0x02011bc4       0x4c d:/devkitpro/devkitarm/bin/../lib/gcc/arm-eabi/4.4.2/../../../../arm-eabi/lib/thumb\libg.a(lib_a-strcpy.o)
                0x02011bc4                strcpy
 .text          0x02011c10       0x6c d:/devkitpro/devkitarm/bin/../lib/gcc/arm-eabi/4.4.2/../../../../arm-eabi/lib/thumb\libg.a(lib_a-strlen.o)
                0x02011c10                strlen
 *fill*         0x02011c7c        0x4 ff
 .text          0x02011c80     0x1730 d:/devkitpro/devkitarm/bin/../lib/gcc/arm-eabi/4.4.2/../../../../arm-eabi/lib/thumb\libg.a(lib_a-svfprintf.o)
                0x02011db4                _svfprintf_r
 .text          0x020133b0       0x1c d:/devkitpro/devkitarm/bin/../lib/gcc/arm-eabi/4.4.2/../../../../arm-eabi/lib/thumb\libg.a(lib_a-sysstat.o)
                0x020133b0                stat
 .text          0x020133cc       0x34 d:/devkitpro/devkitarm/bin/../lib/gcc/arm-eabi/4.4.2/../../../../arm-eabi/lib/thumb\libg.a(lib_a-time.o)
                0x020133cc                time
 .text          0x02013400        0x8 d:/devkitpro/devkitarm/bin/../lib/gcc/arm-eabi/4.4.2/../../../../arm-eabi/lib/thumb\libg.a(lib_a-tzlock.o)
                0x02013400                __tz_lock
                0x02013404                __tz_unlock
 .text          0x02013408        0x0 d:/devkitpro/devkitarm/bin/../lib/gcc/arm-eabi/4.4.2/../../../../arm-eabi/lib/thumb\libg.a(lib_a-tzvars.o)
 .text          0x02013408     0x1810 d:/devkitpro/devkitarm/bin/../lib/gcc/arm-eabi/4.4.2/../../../../arm-eabi/lib/thumb\libg.a(lib_a-vfprintf.o)
                0x02013428                _vfprintf_r
                0x02014bf4                vfprintf
 .text          0x02014c18       0x64 d:/devkitpro/devkitarm/bin/../lib/gcc/arm-eabi/4.4.2/../../../../arm-eabi/lib/thumb\libg.a(lib_a-wcrtomb.o)
                0x02014c18                _wcrtomb_r
                0x02014c5c                wcrtomb
 .text          0x02014c7c      0x104 d:/devkitpro/devkitarm/bin/../lib/gcc/arm-eabi/4.4.2/../../../../arm-eabi/lib/thumb\libg.a(lib_a-wcsrtombs.o)
                0x02014c7c                _wcsrtombs_r
                0x02014d58                wcsrtombs
 .text          0x02014d80      0x2c8 d:/devkitpro/devkitarm/bin/../lib/gcc/arm-eabi/4.4.2/../../../../arm-eabi/lib/thumb\libg.a(lib_a-wctomb_r.o)
                0x02014d80                _wctomb_r
 .text          0x02015048       0xd0 d:/devkitpro/devkitarm/bin/../lib/gcc/arm-eabi/4.4.2/../../../../arm-eabi/lib/thumb\libg.a(lib_a-wsetup.o)
                0x02015048                __swsetup_r
 .text          0x02015118       0xb4 d:/devkitpro/devkitarm/bin/../lib/gcc/arm-eabi/4.4.2/../../../../arm-eabi/lib/thumb\libg.a(lib_a-__atexit.o)
                0x02015118                __register_exitproc
 .text          0x020151cc        0x0 d:/devkitpro/devkitarm/bin/../lib/gcc/arm-eabi/4.4.2/../../../../arm-eabi/lib/thumb\libg.a(lib_a-ctype_.o)
 *fill*         0x020151cc        0x4 ff
 .text          0x020151d0      0xff0 d:/devkitpro/devkitarm/bin/../lib/gcc/arm-eabi/4.4.2/../../../../arm-eabi/lib/thumb\libg.a(lib_a-dtoa.o)
                0x02015324                _dtoa_r
 .text          0x020161c0       0x70 d:/devkitpro/devkitarm/bin/../lib/gcc/arm-eabi/4.4.2/../../../../arm-eabi/lib/thumb\libg.a(lib_a-flags.o)
                0x020161c0                __sflags
 .text          0x02016230      0x318 d:/devkitpro/devkitarm/bin/../lib/gcc/arm-eabi/4.4.2/../../../../arm-eabi/lib/thumb\libg.a(lib_a-fvwrite.o)
                0x02016230                __sfvwrite_r
 .text          0x02016548        0x8 d:/devkitpro/devkitarm/bin/../lib/gcc/arm-eabi/4.4.2/../../../../arm-eabi/lib/thumb\libg.a(lib_a-gettzinfo.o)
                0x02016548                __gettzinfo
 .text          0x02016550      0x660 d:/devkitpro/devkitarm/bin/../lib/gcc/arm-eabi/4.4.2/../../../../arm-eabi/lib/thumb\libg.a(lib_a-mbtowc_r.o)
                0x02016550                _mbtowc_r
 .text          0x02016bb0       0x80 d:/devkitpro/devkitarm/bin/../lib/gcc/arm-eabi/4.4.2/../../../../arm-eabi/lib/thumb\libg.a(lib_a-memchr.o)
                0x02016bb0                memchr
 .text          0x02016c30       0xa0 d:/devkitpro/devkitarm/bin/../lib/gcc/arm-eabi/4.4.2/../../../../arm-eabi/lib/thumb\libg.a(lib_a-memmove.o)
                0x02016c30                memmove
 .text          0x02016cd0      0x9d8 d:/devkitpro/devkitarm/bin/../lib/gcc/arm-eabi/4.4.2/../../../../arm-eabi/lib/thumb\libg.a(lib_a-mprec.o)
                0x02016cd0                _Bfree
                0x02016ce8                __hi0bits
                0x02016d3c                __lo0bits
                0x02016da4                __mcmp
                0x02016de8                __ulp
                0x02016e38                __b2d
                0x02016ed4                __ratio
                0x02016f38                _mprec_log10
                0x02016f7c                __copybits
                0x02016fc4                __any_on
                0x02017018                _Balloc
                0x0201706c                __d2b
                0x02017150                __mdiff
                0x02017270                __lshift
                0x02017334                __multiply
                0x02017498                __i2b
                0x020174b0                __multadd
                0x02017554                __pow5mult
                0x0201760c                __s2b
 .text          0x020176a8       0x24 d:/devkitpro/devkitarm/bin/../lib/gcc/arm-eabi/4.4.2/../../../../arm-eabi/lib/thumb\libg.a(lib_a-s_isinfd.o)
                0x020176a8                __isinfd
 .text          0x020176cc       0x20 d:/devkitpro/devkitarm/bin/../lib/gcc/arm-eabi/4.4.2/../../../../arm-eabi/lib/thumb\libg.a(lib_a-s_isnand.o)
                0x020176cc                __isnand
 .text          0x020176ec       0x50 d:/devkitpro/devkitarm/bin/../lib/gcc/arm-eabi/4.4.2/../../../../arm-eabi/lib/thumb\libsysbase.a(close.o)
                0x020176ec                _close_r
 .text          0x0201773c       0x58 d:/devkitpro/devkitarm/bin/../lib/gcc/arm-eabi/4.4.2/../../../../arm-eabi/lib/thumb\libsysbase.a(fstat.o)
                0x0201773c                _fstat_r
 .text          0x02017794        0x4 d:/devkitpro/devkitarm/bin/../lib/gcc/arm-eabi/4.4.2/../../../../arm-eabi/lib/thumb\libsysbase.a(isatty.o)
                0x02017794                _isatty_r
 .text          0x02017798       0x50 d:/devkitpro/devkitarm/bin/../lib/gcc/arm-eabi/4.4.2/../../../../arm-eabi/lib/thumb\libsysbase.a(lseek.o)
                0x02017798                _lseek_r
 .text          0x020177e8       0xa0 d:/devkitpro/devkitarm/bin/../lib/gcc/arm-eabi/4.4.2/../../../../arm-eabi/lib/thumb\libsysbase.a(open.o)
                0x020177e8                _open_r
 .text          0x02017888       0x50 d:/devkitpro/devkitarm/bin/../lib/gcc/arm-eabi/4.4.2/../../../../arm-eabi/lib/thumb\libsysbase.a(read.o)
                0x02017888                _read_r
 .text          0x020178d8       0x54 d:/devkitpro/devkitarm/bin/../lib/gcc/arm-eabi/4.4.2/../../../../arm-eabi/lib/thumb\libsysbase.a(sbrk.o)
                0x020178d8                _sbrk_r
 .text          0x0201792c       0x40 d:/devkitpro/devkitarm/bin/../lib/gcc/arm-eabi/4.4.2/../../../../arm-eabi/lib/thumb\libsysbase.a(stat.o)
                0x0201792c                _stat_r
 .text          0x0201796c       0x48 d:/devkitpro/devkitarm/bin/../lib/gcc/arm-eabi/4.4.2/../../../../arm-eabi/lib/thumb\libsysbase.a(times.o)
                0x0201796c                _times_r
                0x02017974                _gettimeofday_r
                0x020179a0                _times
 .text          0x020179b4       0x50 d:/devkitpro/devkitarm/bin/../lib/gcc/arm-eabi/4.4.2/../../../../arm-eabi/lib/thumb\libsysbase.a(write.o)
                0x020179b4                _write_r
 .text          0x02017a04        0x0 d:/devkitpro/devkitarm/bin/../lib/gcc/arm-eabi/4.4.2/../../../../arm-eabi/lib/thumb\libsysbase.a(malloc_vars.o)
 .text          0x02017a04       0x54 d:/devkitpro/devkitarm/bin/../lib/gcc/arm-eabi/4.4.2/../../../../arm-eabi/lib/thumb\libsysbase.a(build_argv.o)
                0x02017a04                build_argv
 .text          0x02017a58       0x88 d:/devkitpro/devkitarm/bin/../lib/gcc/arm-eabi/4.4.2/../../../../arm-eabi/lib/thumb\libsysbase.a(handle_manager.o)
                0x02017a58                __get_handle
                0x02017a78                __alloc_handle
                0x02017ab4                __release_handle
 .text          0x02017ae0      0x22c d:/devkitpro/devkitarm/bin/../lib/gcc/arm-eabi/4.4.2/../../../../arm-eabi/lib/thumb\libsysbase.a(dirent.o)
                0x02017ae0                telldir
                0x02017af4                rewinddir
                0x02017b0c                seekdir
                0x02017b60                readdir_r
                0x02017bfc                readdir
                0x02017c98                closedir
                0x02017cc4                opendir
 .text          0x02017d0c      0x144 d:/devkitpro/devkitarm/bin/../lib/gcc/arm-eabi/4.4.2/../../../../arm-eabi/lib/thumb\libsysbase.a(iosupport.o)
                0x02017d0c                setDefaultDevice
                0x02017d20                AddDevice
                0x02017d9c                FindDevice
                0x02017e0c                GetDeviceOpTab
                0x02017e2c                RemoveDevice
 .text          0x02017e50      0x148 d:/devkitpro/devkitarm/bin/../lib/gcc/arm-eabi/4.4.2/../../../../arm-eabi/lib/thumb\libsysbase.a(dir.o)
                0x02017e50                dirreset
                0x02017e88                dirnext
                0x02017ec8                dirclose
                0x02017f10                diropen
 .text          0x02017f98        0xc d:/devkitpro/devkitarm/bin/../lib/gcc/arm-eabi/4.4.2/../../../../arm-eabi/lib/thumb\libg.a(lib_a-errno.o)
                0x02017f98                __errno
 .text          0x02017fa4       0xd4 d:/devkitpro/devkitarm/bin/../lib/gcc/arm-eabi/4.4.2/../../../../arm-eabi/lib/thumb\libg.a(lib_a-strchr.o)
                0x02017fa4                strchr
 .text          0x02018078       0xac d:/devkitpro/devkitarm/bin/../lib/gcc/arm-eabi/4.4.2/../../../../arm-eabi/lib/thumb\libg.a(lib_a-strncmp.o)
                0x02018078                strncmp
 .text          0x02018124       0x64 d:/devkitpro/devkitarm/bin/../lib/gcc/arm-eabi/4.4.2/../../../../arm-eabi/lib/thumb\libg.a(lib_a-strncpy.o)
                0x02018124                strncpy
 .text          0x02018188       0x2c d:/devkitpro/devkitarm/bin/../lib/gcc/arm-eabi/4.4.2/../../../../arm-eabi/lib/thumb\libg.a(lib_a-strnlen.o)
                0x02018188                strnlen
 .text          0x020181b4        0x0 d:/devkitpro/devkitarm/bin/../lib/gcc/arm-eabi/4.4.2/thumb/crtend.o
 .text          0x020181b4        0x0 d:/devkitpro/devkitarm/bin/../lib/gcc/arm-eabi/4.4.2/thumb/crtn.o
 *(.text.*)
 .text.__aeabi_atexit
                0x020181b4       0x14 d:/devkitpro/devkitarm/bin/../lib/gcc/arm-eabi/4.4.2/../../../../arm-eabi/lib/thumb\libstdc++.a(atexit_arm.o)
                0x020181b4                __aeabi_atexit
 *(.stub)
 *(.gnu.warning)
 *(.gnu.linkonce.t*)
 *(.glue_7)
 .glue_7        0x00000000        0x0 linker stubs
 *(.glue_7t)
 .glue_7t       0x00000000        0x0 linker stubs
                0x020181c8                . = ALIGN (0x4)

.vfp11_veneer   0x00000000        0x0 load address 0x020181c8
 .vfp11_veneer  0x00000000        0x0 linker stubs

.v4_bx          0x00000000        0x0 load address 0x020181c8
 .v4_bx         0x00000000        0x0 linker stubs

.fini           0x020181c8        0xc
 *(.fini)
 .fini          0x020181c8        0x4 d:/devkitpro/devkitarm/bin/../lib/gcc/arm-eabi/4.4.2/thumb/crti.o
                0x020181c8                _fini
 .fini          0x020181cc        0x8 d:/devkitpro/devkitarm/bin/../lib/gcc/arm-eabi/4.4.2/thumb/crtn.o
                0x020181d4                __text_end = .

.rodata         0x020181d8   0x13e58c
 *(.rodata)
 .rodata        0x020181d8      0x604 bg_bang_Map.o
                0x020181d8                bg_bang_Map
                0x020187d8                bg_bang_Map_end
                0x020187d8                bg_bang_Map_size
 .rodata        0x020187dc      0x204 bg_bang_Pal.o
                0x020187dc                bg_bang_Pal
                0x020189dc                bg_bang_Pal_size
                0x020189dc                bg_bang_Pal_end
 .rodata        0x020189e0     0x9684 bg_bang_Tiles.o
                0x020189e0                bg_bang_Tiles
                0x02022060                bg_bang_Tiles_size
                0x02022060                bg_bang_Tiles_end
 .rodata        0x02022064      0x604 bg_boom_Map.o
                0x02022064                bg_boom_Map
                0x02022664                bg_boom_Map_end
                0x02022664                bg_boom_Map_size
 .rodata        0x02022668      0x204 bg_boom_Pal.o
                0x02022668                bg_boom_Pal
                0x02022868                bg_boom_Pal_size
                0x02022868                bg_boom_Pal_end
 .rodata        0x0202286c     0x6844 bg_boom_Tiles.o
                0x0202286c                bg_boom_Tiles
                0x020290ac                bg_boom_Tiles_end
                0x020290ac                bg_boom_Tiles_size
 .rodata        0x020290b0      0x604 bg_desks_Map.o
                0x020290b0                bg_desks_Map
                0x020296b0                bg_desks_Map_size
                0x020296b0                bg_desks_Map_end
 .rodata        0x020296b4      0x204 bg_desks_Pal.o
                0x020296b4                bg_desks_Pal
                0x020298b4                bg_desks_Pal_size
                0x020298b4                bg_desks_Pal_end
 .rodata        0x020298b8     0x10c4 bg_desks_Tiles.o
                0x020298b8                bg_desks_Tiles
                0x0202a978                bg_desks_Tiles_size
                0x0202a978                bg_desks_Tiles_end
 .rodata        0x0202a97c      0x604 bg_doors_Map.o
                0x0202a97c                bg_doors_Map
                0x0202af7c                bg_doors_Map_size
                0x0202af7c                bg_doors_Map_end
 .rodata        0x0202af80      0x204 bg_doors_Pal.o
                0x0202af80                bg_doors_Pal
                0x0202b180                bg_doors_Pal_size
                0x0202b180                bg_doors_Pal_end
 .rodata        0x0202b184     0x51c4 bg_doors_Tiles.o
                0x0202b184                bg_doors_Tiles
                0x02030344                bg_doors_Tiles_end
                0x02030344                bg_doors_Tiles_size
 .rodata        0x02030348      0x604 bg_duelStage_Map.o
                0x02030348                bg_duelStage_Map
                0x02030948                bg_duelStage_Map_end
                0x02030948                bg_duelStage_Map_size
 .rodata        0x0203094c      0x204 bg_duelStage_Pal.o
                0x0203094c                bg_duelStage_Pal
                0x02030b4c                bg_duelStage_Pal_end
                0x02030b4c                bg_duelStage_Pal_size
 .rodata        0x02030b50     0x5cc4 bg_duelStage_Tiles.o
                0x02030b50                bg_duelStage_Tiles
                0x02036810                bg_duelStage_Tiles_size
                0x02036810                bg_duelStage_Tiles_end
 .rodata        0x02036814     0x1004 bg_intro_Map.o
                0x02036814                bg_intro_Map
                0x02037814                bg_intro_Map_end
                0x02037814                bg_intro_Map_size
 .rodata        0x02037818      0x204 bg_intro_Pal.o
                0x02037818                bg_intro_Pal
                0x02037a18                bg_intro_Pal_size
                0x02037a18                bg_intro_Pal_end
 .rodata        0x02037a1c     0xc844 bg_intro_Tiles.o
                0x02037a1c                bg_intro_Tiles
                0x0204425c                bg_intro_Tiles_end
                0x0204425c                bg_intro_Tiles_size
 .rodata        0x02044260      0x604 bg_mainMenu_Map.o
                0x02044260                bg_mainMenu_Map
                0x02044860                bg_mainMenu_Map_end
                0x02044860                bg_mainMenu_Map_size
 .rodata        0x02044864      0x204 bg_mainMenu_Pal.o
                0x02044864                bg_mainMenu_Pal
                0x02044a64                bg_mainMenu_Pal_end
                0x02044a64                bg_mainMenu_Pal_size
 .rodata        0x02044a68     0x2a04 bg_mainMenu_Tiles.o
                0x02044a68                bg_mainMenu_Tiles
                0x02047468                bg_mainMenu_Tiles_end
                0x02047468                bg_mainMenu_Tiles_size
 .rodata        0x0204746c      0x604 bg_mainStage_Map.o
                0x0204746c                bg_mainStage_Map
                0x02047a6c                bg_mainStage_Map_size
                0x02047a6c                bg_mainStage_Map_end
 .rodata        0x02047a70      0x204 bg_mainStage_Pal.o
                0x02047a70                bg_mainStage_Pal
                0x02047c70                bg_mainStage_Pal_end
                0x02047c70                bg_mainStage_Pal_size
 .rodata        0x02047c74     0x16c4 bg_mainStage_Tiles.o
                0x02047c74                bg_mainStage_Tiles
                0x02049334                bg_mainStage_Tiles_size
                0x02049334                bg_mainStage_Tiles_end
 .rodata        0x02049338      0x604 mainFont_Map.o
                0x02049338                mainFont_Map
                0x02049938                mainFont_Map_size
                0x02049938                mainFont_Map_end
 .rodata        0x0204993c      0x204 mainFont_Pal.o
                0x0204993c                mainFont_Pal
                0x02049b3c                mainFont_Pal_size
                0x02049b3c                mainFont_Pal_end
 .rodata        0x02049b40     0x2004 mainFont_Tiles.o
                0x02049b40                mainFont_Tiles
                0x0204bb40                mainFont_Tiles_size
                0x0204bb40                mainFont_Tiles_end
 .rodata        0x0204bb44      0x204 sp_BigDollar_Pal.o
                0x0204bb44                sp_BigDollar_Pal
                0x0204bd44                sp_BigDollar_Pal_end
                0x0204bd44                sp_BigDollar_Pal_size
 .rodata        0x0204bd48      0x404 sp_BigDollar_Sprite.o
                0x0204bd48                sp_BigDollar_Sprite
                0x0204c148                sp_BigDollar_Sprite_size
                0x0204c148                sp_BigDollar_Sprite_end
 .rodata        0x0204c14c     0x1004 sp_bandit1_1a_Sprite.o
                0x0204c14c                sp_bandit1_1a_Sprite
                0x0204d14c                sp_bandit1_1a_Sprite_end
                0x0204d14c                sp_bandit1_1a_Sprite_size
 .rodata        0x0204d150     0x1004 sp_bandit1_1b_Sprite.o
                0x0204d150                sp_bandit1_1b_Sprite
                0x0204e150                sp_bandit1_1b_Sprite_size
                0x0204e150                sp_bandit1_1b_Sprite_end
 .rodata        0x0204e154      0x204 sp_bandit1_Pal.o
                0x0204e154                sp_bandit1_Pal
                0x0204e354                sp_bandit1_Pal_end
                0x0204e354                sp_bandit1_Pal_size
 .rodata        0x0204e358      0x204 sp_bandit1_die_Pal.o
                0x0204e358                sp_bandit1_die_Pal
                0x0204e558                sp_bandit1_die_Pal_size
                0x0204e558                sp_bandit1_die_Pal_end
 .rodata        0x0204e55c     0x2004 sp_bandit1_die_bot_Sprite.o
                0x0204e55c                sp_bandit1_die_bot_Sprite
                0x0205055c                sp_bandit1_die_bot_Sprite_size
                0x0205055c                sp_bandit1_die_bot_Sprite_end
 .rodata        0x02050560     0x2004 sp_bandit1_die_top_Sprite.o
                0x02050560                sp_bandit1_die_top_Sprite
                0x02052560                sp_bandit1_die_top_Sprite_end
                0x02052560                sp_bandit1_die_top_Sprite_size
 .rodata        0x02052564      0x204 sp_bandit_duel1_Pal.o
                0x02052564                sp_bandit_duel1_Pal
                0x02052764                sp_bandit_duel1_Pal_end
                0x02052764                sp_bandit_duel1_Pal_size
 .rodata        0x02052768     0x1004 sp_bandit_duel1_a_Sprite.o
                0x02052768                sp_bandit_duel1_a_Sprite
                0x02053768                sp_bandit_duel1_a_Sprite_end
                0x02053768                sp_bandit_duel1_a_Sprite_size
 .rodata        0x0205376c     0x1004 sp_bandit_duel1_b_Sprite.o
                0x0205376c                sp_bandit_duel1_b_Sprite
                0x0205476c                sp_bandit_duel1_b_Sprite_end
                0x0205476c                sp_bandit_duel1_b_Sprite_size
 .rodata        0x02054770     0x1004 sp_bandit_duel1_background_Sprite.o
                0x02054770                sp_bandit_duel1_background_Sprite
                0x02055770                sp_bandit_duel1_background_Sprite_end
                0x02055770                sp_bandit_duel1_background_Sprite_size
 .rodata        0x02055774     0x1004 sp_bandit_duel1_c_Sprite.o
                0x02055774                sp_bandit_duel1_c_Sprite
                0x02056774                sp_bandit_duel1_c_Sprite_size
                0x02056774                sp_bandit_duel1_c_Sprite_end
 .rodata        0x02056778     0x2004 sp_bandit_duel1_dying_Sprite.o
                0x02056778                sp_bandit_duel1_dying_Sprite
                0x02058778                sp_bandit_duel1_dying_Sprite_size
                0x02058778                sp_bandit_duel1_dying_Sprite_end
 .rodata        0x0205877c      0x204 sp_bandit_duel2_Pal.o
                0x0205877c                sp_bandit_duel2_Pal
                0x0205897c                sp_bandit_duel2_Pal_size
                0x0205897c                sp_bandit_duel2_Pal_end
 .rodata        0x02058980     0x1004 sp_bandit_duel2_a_Sprite.o
                0x02058980                sp_bandit_duel2_a_Sprite
                0x02059980                sp_bandit_duel2_a_Sprite_end
                0x02059980                sp_bandit_duel2_a_Sprite_size
 .rodata        0x02059984     0x1004 sp_bandit_duel2_b_Sprite.o
                0x02059984                sp_bandit_duel2_b_Sprite
                0x0205a984                sp_bandit_duel2_b_Sprite_size
                0x0205a984                sp_bandit_duel2_b_Sprite_end
 .rodata        0x0205a988     0x1004 sp_bandit_duel2_background_Sprite.o
                0x0205a988                sp_bandit_duel2_background_Sprite
                0x0205b988                sp_bandit_duel2_background_Sprite_size
                0x0205b988                sp_bandit_duel2_background_Sprite_end
 .rodata        0x0205b98c     0x1004 sp_bandit_duel2_c_Sprite.o
                0x0205b98c                sp_bandit_duel2_c_Sprite
                0x0205c98c                sp_bandit_duel2_c_Sprite_end
                0x0205c98c                sp_bandit_duel2_c_Sprite_size
 .rodata        0x0205c990     0x2004 sp_bandit_duel2_dying_Sprite.o
                0x0205c990                sp_bandit_duel2_dying_Sprite
                0x0205e990                sp_bandit_duel2_dying_Sprite_size
                0x0205e990                sp_bandit_duel2_dying_Sprite_end
 .rodata        0x0205e994      0x204 sp_bandit_duel3_Pal.o
                0x0205e994                sp_bandit_duel3_Pal
                0x0205eb94                sp_bandit_duel3_Pal_end
                0x0205eb94                sp_bandit_duel3_Pal_size
 .rodata        0x0205eb98     0x1004 sp_bandit_duel3_a_Sprite.o
                0x0205eb98                sp_bandit_duel3_a_Sprite
                0x0205fb98                sp_bandit_duel3_a_Sprite_end
                0x0205fb98                sp_bandit_duel3_a_Sprite_size
 .rodata        0x0205fb9c     0x1004 sp_bandit_duel3_b_Sprite.o
                0x0205fb9c                sp_bandit_duel3_b_Sprite
                0x02060b9c                sp_bandit_duel3_b_Sprite_size
                0x02060b9c                sp_bandit_duel3_b_Sprite_end
 .rodata        0x02060ba0     0x1004 sp_bandit_duel3_background_Sprite.o
                0x02060ba0                sp_bandit_duel3_background_Sprite
                0x02061ba0                sp_bandit_duel3_background_Sprite_end
                0x02061ba0                sp_bandit_duel3_background_Sprite_size
 .rodata        0x02061ba4     0x1004 sp_bandit_duel3_c_Sprite.o
                0x02061ba4                sp_bandit_duel3_c_Sprite
                0x02062ba4                sp_bandit_duel3_c_Sprite_size
                0x02062ba4                sp_bandit_duel3_c_Sprite_end
 .rodata        0x02062ba8     0x2004 sp_bandit_duel3_dying_Sprite.o
                0x02062ba8                sp_bandit_duel3_dying_Sprite
                0x02064ba8                sp_bandit_duel3_dying_Sprite_end
                0x02064ba8                sp_bandit_duel3_dying_Sprite_size
 .rodata        0x02064bac      0x104 sp_dolar_Sprite.o
                0x02064bac                sp_dolar_Sprite
                0x02064cac                sp_dolar_Sprite_end
                0x02064cac                sp_dolar_Sprite_size
 .rodata        0x02064cb0      0x204 sp_dollar_Pal.o
                0x02064cb0                sp_dollar_Pal
                0x02064eb0                sp_dollar_Pal_size
                0x02064eb0                sp_dollar_Pal_end
 .rodata        0x02064eb4     0x4004 sp_doorsClose_bot_Sprite.o
                0x02064eb4                sp_doorsClose_bot_Sprite
                0x02068eb4                sp_doorsClose_bot_Sprite_size
                0x02068eb4                sp_doorsClose_bot_Sprite_end
 .rodata        0x02068eb8     0x4004 sp_doorsClose_top_Sprite.o
                0x02068eb8                sp_doorsClose_top_Sprite
                0x0206ceb8                sp_doorsClose_top_Sprite_end
                0x0206ceb8                sp_doorsClose_top_Sprite_size
 .rodata        0x0206cebc     0x4004 sp_doorsOpen_bot_Sprite.o
                0x0206cebc                sp_doorsOpen_bot_Sprite
                0x02070ebc                sp_doorsOpen_bot_Sprite_size
                0x02070ebc                sp_doorsOpen_bot_Sprite_end
 .rodata        0x02070ec0     0x4004 sp_doorsOpen_top_Sprite.o
                0x02070ec0                sp_doorsOpen_top_Sprite
                0x02074ec0                sp_doorsOpen_top_Sprite_size
                0x02074ec0                sp_doorsOpen_top_Sprite_end
 .rodata        0x02074ec4      0x204 sp_doors_Pal.o
                0x02074ec4                sp_doors_Pal
                0x020750c4                sp_doors_Pal_size
                0x020750c4                sp_doors_Pal_end
 .rodata        0x020750c8      0x204 sp_hatman_Pal.o
                0x020750c8                sp_hatman_Pal
                0x020752c8                sp_hatman_Pal_end
                0x020752c8                sp_hatman_Pal_size
 .rodata        0x020752cc     0x1004 sp_hatman_bot_Sprite.o
                0x020752cc                sp_hatman_bot_Sprite
                0x020762cc                sp_hatman_bot_Sprite_end
                0x020762cc                sp_hatman_bot_Sprite_size
 .rodata        0x020762d0     0xa004 sp_hatman_top_Sprite.o
                0x020762d0                sp_hatman_top_Sprite
                0x020802d0                sp_hatman_top_Sprite_end
                0x020802d0                sp_hatman_top_Sprite_size
 .rodata        0x020802d4      0x204 sp_life_Pal.o
                0x020802d4                sp_life_Pal
                0x020804d4                sp_life_Pal_size
                0x020804d4                sp_life_Pal_end
 .rodata        0x020804d8      0x204 sp_life_Sprite.o
                0x020804d8                sp_life_Sprite
                0x020806d8                sp_life_Sprite_size
                0x020806d8                sp_life_Sprite_end
 .rodata        0x020806dc     0x1004 sp_man_1a_Sprite.o
                0x020806dc                sp_man_1a_Sprite
                0x020816dc                sp_man_1a_Sprite_end
                0x020816dc                sp_man_1a_Sprite_size
 .rodata        0x020816e0     0x1004 sp_man_1b_Sprite.o
                0x020816e0                sp_man_1b_Sprite
                0x020826e0                sp_man_1b_Sprite_size
                0x020826e0                sp_man_1b_Sprite_end
 .rodata        0x020826e4      0x204 sp_man_Pal.o
                0x020826e4                sp_man_Pal
                0x020828e4                sp_man_Pal_end
                0x020828e4                sp_man_Pal_size
 .rodata        0x020828e8      0x204 sp_man_die_Pal.o
                0x020828e8                sp_man_die_Pal
                0x02082ae8                sp_man_die_Pal_end
                0x02082ae8                sp_man_die_Pal_size
 .rodata        0x02082aec     0x2004 sp_man_dying_bot_Sprite.o
                0x02082aec                sp_man_dying_bot_Sprite
                0x02084aec                sp_man_dying_bot_Sprite_size
                0x02084aec                sp_man_dying_bot_Sprite_end
 .rodata        0x02084af0     0x2004 sp_man_dying_top_Sprite.o
                0x02084af0                sp_man_dying_top_Sprite
                0x02086af0                sp_man_dying_top_Sprite_end
                0x02086af0                sp_man_dying_top_Sprite_size
 .rodata        0x02086af4      0x204 sp_menuStart_Pal.o
                0x02086af4                sp_menuStart_Pal
                0x02086cf4                sp_menuStart_Pal_end
                0x02086cf4                sp_menuStart_Pal_size
 .rodata        0x02086cf8      0x204 sp_menu_credits_1_Sprite.o
                0x02086cf8                sp_menu_credits_1_Sprite
                0x02086ef8                sp_menu_credits_1_Sprite_end
                0x02086ef8                sp_menu_credits_1_Sprite_size
 .rodata        0x02086efc      0x204 sp_menu_credits_2_Sprite.o
                0x02086efc                sp_menu_credits_2_Sprite
                0x020870fc                sp_menu_credits_2_Sprite_end
                0x020870fc                sp_menu_credits_2_Sprite_size
 .rodata        0x02087100      0x204 sp_menu_hiscores_1_Sprite.o
                0x02087100                sp_menu_hiscores_1_Sprite
                0x02087300                sp_menu_hiscores_1_Sprite_end
                0x02087300                sp_menu_hiscores_1_Sprite_size
 .rodata        0x02087304      0x204 sp_menu_hiscores_2_Sprite.o
                0x02087304                sp_menu_hiscores_2_Sprite
                0x02087504                sp_menu_hiscores_2_Sprite_size
                0x02087504                sp_menu_hiscores_2_Sprite_end
 .rodata        0x02087508       0x84 sp_menu_hiscores_3_Sprite.o
                0x02087508                sp_menu_hiscores_3_Sprite
                0x02087588                sp_menu_hiscores_3_Sprite_size
                0x02087588                sp_menu_hiscores_3_Sprite_end
 .rodata        0x0208758c      0x204 sp_menu_start_1_Sprite.o
                0x0208758c                sp_menu_start_1_Sprite
                0x0208778c                sp_menu_start_1_Sprite_size
                0x0208778c                sp_menu_start_1_Sprite_end
 .rodata        0x02087790      0x204 sp_menu_start_2_Sprite.o
                0x02087790                sp_menu_start_2_Sprite
                0x02087990                sp_menu_start_2_Sprite_size
                0x02087990                sp_menu_start_2_Sprite_end
 .rodata        0x02087994      0x204 sp_menu_start_3_Sprite.o
                0x02087994                sp_menu_start_3_Sprite
                0x02087b94                sp_menu_start_3_Sprite_end
                0x02087b94                sp_menu_start_3_Sprite_size
 .rodata        0x02087b98      0x104 sp_redBar_1_Sprite.o
                0x02087b98                sp_redBar_1_Sprite
                0x02087c98                sp_redBar_1_Sprite_end
                0x02087c98                sp_redBar_1_Sprite_size
 .rodata        0x02087c9c       0x84 sp_redBar_2_Sprite.o
                0x02087c9c                sp_redBar_2_Sprite
                0x02087d1c                sp_redBar_2_Sprite_size
                0x02087d1c                sp_redBar_2_Sprite_end
 .rodata        0x02087d20      0x204 sp_redBar_Pal.o
                0x02087d20                sp_redBar_Pal
                0x02087f20                sp_redBar_Pal_size
                0x02087f20                sp_redBar_Pal_end
 .rodata        0x02087f24       0xc4 sp_shoot_Sprite.o
                0x02087f24                sp_shoot_Sprite
                0x02087fe4                sp_shoot_Sprite_size
                0x02087fe4                sp_shoot_Sprite_end
 .rodata        0x02087fe8     0x1004 sp_woman_1a_Sprite.o
                0x02087fe8                sp_woman_1a_Sprite
                0x02088fe8                sp_woman_1a_Sprite_end
                0x02088fe8                sp_woman_1a_Sprite_size
 .rodata        0x02088fec     0x1004 sp_woman_1b_Sprite.o
                0x02088fec                sp_woman_1b_Sprite
                0x02089fec                sp_woman_1b_Sprite_size
                0x02089fec                sp_woman_1b_Sprite_end
 .rodata        0x02089ff0      0x204 sp_woman_Pal.o
                0x02089ff0                sp_woman_Pal
                0x0208a1f0                sp_woman_Pal_size
                0x0208a1f0                sp_woman_Pal_end
 .rodata        0x0208a1f4      0x204 sp_woman_die_Pal.o
                0x0208a1f4                sp_woman_die_Pal
                0x0208a3f4                sp_woman_die_Pal_end
                0x0208a3f4                sp_woman_die_Pal_size
 .rodata        0x0208a3f8     0x2004 sp_woman_dying_bot_Sprite.o
                0x0208a3f8                sp_woman_dying_bot_Sprite
                0x0208c3f8                sp_woman_dying_bot_Sprite_end
                0x0208c3f8                sp_woman_dying_bot_Sprite_size
 .rodata        0x0208c3fc     0x2004 sp_woman_dying_top_Sprite.o
                0x0208c3fc                sp_woman_dying_top_Sprite
                0x0208e3fc                sp_woman_dying_top_Sprite_size
                0x0208e3fc                sp_woman_dying_top_Sprite_end
 .rodata        0x0208e400    0xadfbc soundbank_bin.o
                0x0208e400                soundbank_bin
                0x0213c3b8                soundbank_bin_size
                0x0213c3b8                soundbank_bin_end
 .rodata        0x0213c3bc     0x2840 bg_Splash_developedBy_1.o
                0x0213c3bc                bg_Splash_developedBy_1
                0x0213ebf7                bg_Splash_developedBy_1_end
                0x0213ebf8                bg_Splash_developedBy_1_size
 .rodata        0x0213ebfc     0x268c bg_Splash_developedBy_2.o
                0x0213ebfc                bg_Splash_developedBy_2
                0x02141283                bg_Splash_developedBy_2_end
                0x02141284                bg_Splash_developedBy_2_size
 .rodata        0x02141288     0x2b34 bg_palib_1.o
                0x02141288                bg_palib_1
                0x02143db5                bg_palib_1_end
                0x02143db8                bg_palib_1_size
 .rodata        0x02143dbc     0x4c3c bg_palib_2.o
                0x02143dbc                bg_palib_2
                0x021489f2                bg_palib_2_end
                0x021489f4                bg_palib_2_size
 .rodata        0x021489f8      0x27c logo.o
                0x021489f8                logo
                0x02148c6e                logo_end
                0x02148c70                logo_size
 .rodata        0x02148c74      0x144 logo_wifi.o
                0x02148c74                logo_wifi
                0x02148db2                logo_wifi_end
                0x02148db4                logo_wifi_size
 .rodata        0x02148db8       0x20 bg_bang.o
                0x02148db8                bg_bang
 .rodata        0x02148dd8       0x20 bg_boom.o
                0x02148dd8                bg_boom
 .rodata        0x02148df8       0x20 bg_desks.o
                0x02148df8                bg_desks
 .rodata        0x02148e18       0x20 bg_doors.o
                0x02148e18                bg_doors
 .rodata        0x02148e38       0x20 bg_duelStage.o
                0x02148e38                bg_duelStage
 .rodata        0x02148e58       0x20 bg_intro.o
                0x02148e58                bg_intro
 .rodata        0x02148e78       0x20 bg_mainMenu.o
                0x02148e78                bg_mainMenu
 .rodata        0x02148e98       0x20 bg_mainStage.o
                0x02148e98                bg_mainStage
 .rodata        0x02148eb8       0x20 mainFont.o
                0x02148eb8                mainFont
 .rodata        0x02148ed8       0x28 Door.o
 .rodata        0x02148f00       0x10 DuelStage.o
 .rodata        0x02148f10       0x48 Game.o
 .rodata        0x02148f58        0xc MainStage.o
 .rodata        0x02148f64       0x20 UIManager.o
 .rodata        0x02148f84       0x1c main.o
 .rodata        0x02148fa0       0x10 d:/devkitPro/PAlib/lib\libpa9.a(PA_Gif.o)
                0x02148fa0                InterlacedOffset
                0x02148fa8                InterlacedJumps
 .rodata        0x02148fb0       0x40 d:/devkitPro/PAlib/lib\libpa9.a(PA_Inits.o)
                0x02148fb0                winfades
 .rodata        0x02148ff0      0x400 d:/devkitPro/PAlib/lib\libpa9.a(PA_Math.o)
                0x02148ff0                PA_SIN
 .rodata        0x021493f0       0x30 d:/devkitPro/PAlib/lib\libpa9.a(PA_Sprite.o)
                0x021493f0                PA_size
                0x02149408                PA_obj_sizes
 .rodata        0x02149420       0x1c d:/devkitPro/PAlib/lib\libpa9.a(dgif_lib.o)
 .rodata        0x0214943c      0x1c4 d:/devkitPro/PAlib/lib\libpa9.a(gif_err.o)
 .rodata        0x02149600       0x20 d:/devkitPro/PAlib/lib\libpa9.a(PA_TiledFont.o)
                0x02149600                PA_TiledFont
 .rodata        0x02149620       0x20 d:/devkitPro/PAlib/lib\libpa9.a(PA_BmpFont0.o)
                0x02149620                PA_BmpFont0
 .rodata        0x02149640       0x20 d:/devkitPro/PAlib/lib\libpa9.a(PA_BmpFont1.o)
                0x02149640                PA_BmpFont1
 .rodata        0x02149660       0x20 d:/devkitPro/PAlib/lib\libpa9.a(PA_BmpFont2.o)
                0x02149660                PA_BmpFont2
 .rodata        0x02149680       0x20 d:/devkitPro/PAlib/lib\libpa9.a(PA_BmpFont3.o)
                0x02149680                PA_BmpFont3
 .rodata        0x021496a0       0x20 d:/devkitPro/PAlib/lib\libpa9.a(PA_BmpFont4.o)
                0x021496a0                PA_BmpFont4
 .rodata        0x021496c0      0x604 d:/devkitPro/PAlib/lib\libpa9.a(PA_TiledFont_Map.bin.o)
                0x021496c0                PA_TiledFont_Map
                0x02149cc0                PA_TiledFont_Map_size
                0x02149cc0                PA_TiledFont_Map_end
 .rodata        0x02149cc4      0x204 d:/devkitPro/PAlib/lib\libpa9.a(PA_TiledFont_Pal.bin.o)
                0x02149cc4                PA_TiledFont_Pal
                0x02149ec4                PA_TiledFont_Pal_end
                0x02149ec4                PA_TiledFont_Pal_size
 .rodata        0x02149ec8     0x33c4 d:/devkitPro/PAlib/lib\libpa9.a(PA_TiledFont_Tiles.bin.o)
                0x02149ec8                PA_TiledFont_Tiles
                0x0214d288                PA_TiledFont_Tiles_size
                0x0214d288                PA_TiledFont_Tiles_end
 .rodata        0x0214d28c      0x204 d:/devkitPro/PAlib/lib\libpa9.a(PA_BmpFont0_Map.bin.o)
                0x0214d28c                PA_BmpFont0_Map
                0x0214d48c                PA_BmpFont0_Map_end
                0x0214d48c                PA_BmpFont0_Map_size
 .rodata        0x0214d490      0x104 d:/devkitPro/PAlib/lib\libpa9.a(PA_BmpFont0_Sizes.bin.o)
                0x0214d490                PA_BmpFont0_Sizes
                0x0214d590                PA_BmpFont0_Sizes_size
                0x0214d590                PA_BmpFont0_Sizes_end
 .rodata        0x0214d594      0x324 d:/devkitPro/PAlib/lib\libpa9.a(PA_BmpFont0_Tiles.bin.o)
                0x0214d594                PA_BmpFont0_Tiles
                0x0214d8b4                PA_BmpFont0_Tiles_size
                0x0214d8b4                PA_BmpFont0_Tiles_end
 .rodata        0x0214d8b8      0x204 d:/devkitPro/PAlib/lib\libpa9.a(PA_BmpFont1_Map.bin.o)
                0x0214d8b8                PA_BmpFont1_Map
                0x0214dab8                PA_BmpFont1_Map_end
                0x0214dab8                PA_BmpFont1_Map_size
 .rodata        0x0214dabc      0x104 d:/devkitPro/PAlib/lib\libpa9.a(PA_BmpFont1_Sizes.bin.o)
                0x0214dabc                PA_BmpFont1_Sizes
                0x0214dbbc                PA_BmpFont1_Sizes_size
                0x0214dbbc                PA_BmpFont1_Sizes_end
 .rodata        0x0214dbc0      0x34c d:/devkitPro/PAlib/lib\libpa9.a(PA_BmpFont1_Tiles.bin.o)
                0x0214dbc0                PA_BmpFont1_Tiles
                0x0214df08                PA_BmpFont1_Tiles_end
                0x0214df08                PA_BmpFont1_Tiles_size
 .rodata        0x0214df0c      0x804 d:/devkitPro/PAlib/lib\libpa9.a(PA_BmpFont2_Map.bin.o)
                0x0214df0c                PA_BmpFont2_Map
                0x0214e70c                PA_BmpFont2_Map_size
                0x0214e70c                PA_BmpFont2_Map_end
 .rodata        0x0214e710      0x104 d:/devkitPro/PAlib/lib\libpa9.a(PA_BmpFont2_Sizes.bin.o)
                0x0214e710                PA_BmpFont2_Sizes
                0x0214e810                PA_BmpFont2_Sizes_end
                0x0214e810                PA_BmpFont2_Sizes_size
 .rodata        0x0214e814      0x39c d:/devkitPro/PAlib/lib\libpa9.a(PA_BmpFont2_Tiles.bin.o)
                0x0214e814                PA_BmpFont2_Tiles
                0x0214ebac                PA_BmpFont2_Tiles_size
                0x0214ebac                PA_BmpFont2_Tiles_end
 .rodata        0x0214ebb0      0x804 d:/devkitPro/PAlib/lib\libpa9.a(PA_BmpFont3_Map.bin.o)
                0x0214ebb0                PA_BmpFont3_Map
                0x0214f3b0                PA_BmpFont3_Map_end
                0x0214f3b0                PA_BmpFont3_Map_size
 .rodata        0x0214f3b4      0x104 d:/devkitPro/PAlib/lib\libpa9.a(PA_BmpFont3_Sizes.bin.o)
                0x0214f3b4                PA_BmpFont3_Sizes
                0x0214f4b4                PA_BmpFont3_Sizes_end
                0x0214f4b4                PA_BmpFont3_Sizes_size
 .rodata        0x0214f4b8      0x624 d:/devkitPro/PAlib/lib\libpa9.a(PA_BmpFont3_Tiles.bin.o)
                0x0214f4b8                PA_BmpFont3_Tiles
                0x0214fad8                PA_BmpFont3_Tiles_end
                0x0214fad8                PA_BmpFont3_Tiles_size
 .rodata        0x0214fadc      0x804 d:/devkitPro/PAlib/lib\libpa9.a(PA_BmpFont4_Map.bin.o)
                0x0214fadc                PA_BmpFont4_Map
                0x021502dc                PA_BmpFont4_Map_size
                0x021502dc                PA_BmpFont4_Map_end
 .rodata        0x021502e0      0x104 d:/devkitPro/PAlib/lib\libpa9.a(PA_BmpFont4_Sizes.bin.o)
                0x021502e0                PA_BmpFont4_Sizes
                0x021503e0                PA_BmpFont4_Sizes_end
                0x021503e0                PA_BmpFont4_Sizes_size
 .rodata        0x021503e4      0x834 d:/devkitPro/PAlib/lib\libpa9.a(PA_BmpFont4_Tiles.bin.o)
                0x021503e4                PA_BmpFont4_Tiles
                0x02150c14                PA_BmpFont4_Tiles_size
                0x02150c14                PA_BmpFont4_Tiles_end
 .rodata        0x02150c18       0xf0 d:/devkitPro/PAlib/lib\libpa9.a(PA_Keyboard.o)
                0x02150c18                PA_Keyboard
 .rodata        0x02150d08     0x2000 d:/devkitPro/PAlib/lib\libpa9.a(keyboard.map.o)
                0x02150d08                keyboard_Map
 .rodata        0x02152d08       0x20 d:/devkitPro/PAlib/lib\libpa9.a(keyboard.pal.o)
                0x02152d08                keyboard_Palette
 .rodata        0x02152d28     0x28a0 d:/devkitPro/PAlib/lib\libpa9.a(keyboard.raw.o)
                0x02152d28                keyboard_Tiles
 .rodata        0x021555c8        0x4 d:/devkitpro/devkitarm/bin/../lib/gcc/arm-eabi/4.4.2/../../../../arm-eabi/lib/thumb\libg.a(lib_a-impure.o)
                0x021555c8                _global_impure_ptr
 .rodata        0x021555cc       0xb8 d:/devkitpro/devkitarm/bin/../lib/gcc/arm-eabi/4.4.2/../../../../arm-eabi/lib/thumb\libg.a(lib_a-locale.o)
 .rodata        0x02155684       0x68 d:/devkitpro/devkitarm/bin/../lib/gcc/arm-eabi/4.4.2/../../../../arm-eabi/lib/thumb\libg.a(lib_a-mktm_r.o)
 .rodata        0x021556ec      0x184 d:/devkitpro/devkitarm/bin/../lib/gcc/arm-eabi/4.4.2/../../../../arm-eabi/lib/thumb\libg.a(lib_a-svfprintf.o)
 .rodata        0x02155870      0x184 d:/devkitpro/devkitarm/bin/../lib/gcc/arm-eabi/4.4.2/../../../../arm-eabi/lib/thumb\libg.a(lib_a-vfprintf.o)
 .rodata        0x021559f4      0x104 d:/devkitpro/devkitarm/bin/../lib/gcc/arm-eabi/4.4.2/../../../../arm-eabi/lib/thumb\libg.a(lib_a-ctype_.o)
                0x021559f4                _ctype_
 .rodata        0x02155af8       0xa8 d:/devkitpro/devkitarm/bin/../lib/gcc/arm-eabi/4.4.2/../../../../arm-eabi/lib/thumb\libg.a(lib_a-mbtowc_r.o)
 .rodata        0x02155ba0      0x128 d:/devkitpro/devkitarm/bin/../lib/gcc/arm-eabi/4.4.2/../../../../arm-eabi/lib/thumb\libg.a(lib_a-mprec.o)
                0x02155ba0                __mprec_tens
                0x02155c78                __mprec_bigtens
                0x02155ca0                __mprec_tinytens
 .rodata        0x02155cc8       0x5c d:/devkitpro/devkitarm/bin/../lib/gcc/arm-eabi/4.4.2/../../../../arm-eabi/lib/thumb\libsysbase.a(iosupport.o)
                0x02155cc8                dotab_stdnull
 *all.rodata*(*)
 *(.roda)
 *(.rodata.*)
 .rodata.str1.4
                0x02155d24        0x6 utils.o
                                  0x8 (size before relaxing)
 *fill*         0x02155d2a        0x2 ff
 .rodata.str1.4
                0x02155d2c        0x3 DuelStage.o
                                  0x8 (size before relaxing)
 *fill*         0x02155d2f        0x1 ff
 .rodata.str1.4
                0x02155d30       0x22 Game.o
                                 0x24 (size before relaxing)
 *fill*         0x02155d52        0x2 ff
 .rodata.str1.4
                0x02155d54        0x9 UIManager.o
                                  0xc (size before relaxing)
 .rodata.str1.4
                0x00000000        0x8 main.o
 *fill*         0x02155d5d        0x3 ff
 .rodata.str1.4
                0x02155d60      0x18b d:/devkitPro/PAlib/lib\libpa9.a(PA_BgTiles.o)
                                0x190 (size before relaxing)
 *fill*         0x02155eeb        0x1 ff
 .rodata.str1.4
                0x02155eec       0x26 d:/devkitPro/PAlib/lib\libpa9.a(PA_Error.o)
                                 0x28 (size before relaxing)
 *fill*         0x02155f12        0x2 ff
 .rodata.str1.4
                0x02155f14      0x197 d:/devkitPro/PAlib/lib\libpa9.a(PA_Gif.o)
                                0x198 (size before relaxing)
 *fill*         0x021560ab        0x1 ff
 .rodata.str1.4
                0x021560ac        0x2 d:/devkitPro/PAlib/lib\libpa9.a(PA_Inits.o)
                                  0x4 (size before relaxing)
 *fill*         0x021560ae        0x2 ff
 .rodata.str1.4
                0x021560b0      0x127 d:/devkitPro/PAlib/lib\libpa9.a(PA_NewBg.o)
                                0x128 (size before relaxing)
 *fill*         0x021561d7        0x1 ff
 .rodata.str1.4
                0x021561d8      0x234 d:/devkitPro/PAlib/lib\libpa9.a(PA_Sprite.o)
 .rodata.str1.4
                0x0215640c        0xa d:/devkitPro/PAlib/lib\libpa9.a(PA_Stuff.o)
                                  0xc (size before relaxing)
 *fill*         0x02156416        0x2 ff
 .rodata.str1.4
                0x02156418      0x292 d:/devkitPro/PAlib/lib\libpa9.a(gif_err.o)
                                0x294 (size before relaxing)
 .rodata.str1.4
                0x00000000        0x4 d:/devkitpro/devkitarm/bin/../lib/gcc/arm-eabi/4.4.2/../../../../arm-eabi/lib/thumb\libg.a(lib_a-impure.o)
 *fill*         0x021566aa        0x2 ff
 .rodata.str1.4
                0x021566ac       0x55 d:/devkitpro/devkitarm/bin/../lib/gcc/arm-eabi/4.4.2/../../../../arm-eabi/lib/thumb\libg.a(lib_a-locale.o)
                                 0x64 (size before relaxing)
 *fill*         0x02156701        0x3 ff
 .rodata.str1.4
                0x02156704       0x42 d:/devkitpro/devkitarm/bin/../lib/gcc/arm-eabi/4.4.2/../../../../arm-eabi/lib/thumb\libg.a(lib_a-svfprintf.o)
                                 0x44 (size before relaxing)
 *fill*         0x02156746        0x2 ff
 .rodata.str1.4
                0x02156748        0x4 d:/devkitpro/devkitarm/bin/../lib/gcc/arm-eabi/4.4.2/../../../../arm-eabi/lib/thumb\libg.a(lib_a-tzvars.o)
 .rodata.str1.4
                0x00000000       0x44 d:/devkitpro/devkitarm/bin/../lib/gcc/arm-eabi/4.4.2/../../../../arm-eabi/lib/thumb\libg.a(lib_a-vfprintf.o)
 .rodata.str1.4
                0x00000000       0x20 d:/devkitpro/devkitarm/bin/../lib/gcc/arm-eabi/4.4.2/../../../../arm-eabi/lib/thumb\libg.a(lib_a-wctomb_r.o)
 .rodata.str1.4
                0x0215674c       0x10 d:/devkitpro/devkitarm/bin/../lib/gcc/arm-eabi/4.4.2/../../../../arm-eabi/lib/thumb\libg.a(lib_a-dtoa.o)
                                 0x14 (size before relaxing)
 .rodata.str1.4
                0x00000000       0x20 d:/devkitpro/devkitarm/bin/../lib/gcc/arm-eabi/4.4.2/../../../../arm-eabi/lib/thumb\libg.a(lib_a-mbtowc_r.o)
 .rodata.str1.4
                0x0215675c        0x8 d:/devkitpro/devkitarm/bin/../lib/gcc/arm-eabi/4.4.2/../../../../arm-eabi/lib/thumb\libsysbase.a(iosupport.o)
 *(.gnu.linkonce.r*)
                0x02156764                . = ALIGN (0x4)

.ARM.extab      0x02156764        0x0
 *(.ARM.extab* .gnu.linkonce.armextab.*)
 .ARM.extab.text.__aeabi_atexit
                0x02156764        0x0 d:/devkitpro/devkitarm/bin/../lib/gcc/arm-eabi/4.4.2/../../../../arm-eabi/lib/thumb\libstdc++.a(atexit_arm.o)
                0x02156764                __exidx_start = .

.ARM.exidx      0x02156764        0x8
 *(.ARM.exidx* .gnu.linkonce.armexidx.*)
 .ARM.exidx.text.__aeabi_atexit
                0x02156764        0x8 d:/devkitpro/devkitarm/bin/../lib/gcc/arm-eabi/4.4.2/../../../../arm-eabi/lib/thumb\libstdc++.a(atexit_arm.o)
                0x0215676c                __exidx_end = .
                0x0215676c                . = ALIGN (0x4)
                0x0215676c                PROVIDE (__preinit_array_start, .)

.preinit_array
 *(.preinit_array)
                0x0215676c                PROVIDE (__preinit_array_end, .)
                0x0215676c                PROVIDE (__init_array_start, .)

.init_array     0x0215676c        0x8
 *(.init_array)
 .init_array    0x0215676c        0x4 d:/devkitpro/devkitarm/bin/../lib/gcc/arm-eabi/4.4.2/thumb/crtbegin.o
 .init_array    0x02156770        0x4 main.o
                0x02156774                PROVIDE (__init_array_end, .)
                0x02156774                PROVIDE (__fini_array_start, .)

.fini_array     0x02156774        0x4
 *(.fini_array)
 .fini_array    0x02156774        0x4 d:/devkitpro/devkitarm/bin/../lib/gcc/arm-eabi/4.4.2/thumb/crtbegin.o
                0x02156778                PROVIDE (__fini_array_end, .)

.ctors          0x02156778        0x0
 *crtbegin.o(.ctors)
 *(EXCLUDE_FILE(*crtend.o) .ctors)
 *(SORT(.ctors.*))
 *(.ctors)
                0x02156778                . = ALIGN (0x4)

.dtors          0x02156778        0x0
 *crtbegin.o(.dtors)
 *(EXCLUDE_FILE(*crtend.o) .dtors)
 *(SORT(.dtors.*))
 *(.dtors)
                0x02156778                . = ALIGN (0x4)

.eh_frame       0x02156778        0x4
 *(.eh_frame)
 .eh_frame      0x02156778        0x0 d:/devkitpro/devkitarm/bin/../lib/gcc/arm-eabi/4.4.2/thumb/crtbegin.o
 .eh_frame      0x02156778        0x4 d:/devkitpro/devkitarm/bin/../lib/gcc/arm-eabi/4.4.2/thumb/crtend.o
                0x0215677c                . = ALIGN (0x4)

.gcc_except_table
                0x0215677c        0x0
 *(.gcc_except_table)
                0x0215677c                . = ALIGN (0x4)

.jcr            0x0215677c        0x4
 *(.jcr)
 .jcr           0x0215677c        0x0 d:/devkitpro/devkitarm/bin/../lib/gcc/arm-eabi/4.4.2/thumb/crtbegin.o
 .jcr           0x0215677c        0x4 d:/devkitpro/devkitarm/bin/../lib/gcc/arm-eabi/4.4.2/thumb/crtend.o

.got
 *(.got.plt)
 *(.got)
 *(.rel.got)

.ewram          0x02156780        0x0
                0x02156780                __ewram_start = ABSOLUTE (.)
 *(.ewram)
 *ewram.*(.text)
                0x02156780                . = ALIGN (0x4)

.data           0x02156780      0xc44
                0x02156780                __data_start = ABSOLUTE (.)
 *(.data)
 .data          0x02156780        0x0 d:/devkitpro/devkitarm/bin/../lib/gcc/arm-eabi/4.4.2/../../../../arm-eabi/lib/thumb/ds_arm9_crt0.o
 .data          0x02156780        0x0 d:/devkitpro/devkitarm/bin/../lib/gcc/arm-eabi/4.4.2/thumb/crti.o
 .data          0x02156780        0x4 d:/devkitpro/devkitarm/bin/../lib/gcc/arm-eabi/4.4.2/thumb/crtbegin.o
                0x02156780                __dso_handle
 .data          0x02156784        0x0 bg_bang_Map.o
 .data          0x02156784        0x0 bg_bang_Pal.o
 .data          0x02156784        0x0 bg_bang_Tiles.o
 .data          0x02156784        0x0 bg_boom_Map.o
 .data          0x02156784        0x0 bg_boom_Pal.o
 .data          0x02156784        0x0 bg_boom_Tiles.o
 .data          0x02156784        0x0 bg_desks_Map.o
 .data          0x02156784        0x0 bg_desks_Pal.o
 .data          0x02156784        0x0 bg_desks_Tiles.o
 .data          0x02156784        0x0 bg_doors_Map.o
 .data          0x02156784        0x0 bg_doors_Pal.o
 .data          0x02156784        0x0 bg_doors_Tiles.o
 .data          0x02156784        0x0 bg_duelStage_Map.o
 .data          0x02156784        0x0 bg_duelStage_Pal.o
 .data          0x02156784        0x0 bg_duelStage_Tiles.o
 .data          0x02156784        0x0 bg_intro_Map.o
 .data          0x02156784        0x0 bg_intro_Pal.o
 .data          0x02156784        0x0 bg_intro_Tiles.o
 .data          0x02156784        0x0 bg_mainMenu_Map.o
 .data          0x02156784        0x0 bg_mainMenu_Pal.o
 .data          0x02156784        0x0 bg_mainMenu_Tiles.o
 .data          0x02156784        0x0 bg_mainStage_Map.o
 .data          0x02156784        0x0 bg_mainStage_Pal.o
 .data          0x02156784        0x0 bg_mainStage_Tiles.o
 .data          0x02156784        0x0 mainFont_Map.o
 .data          0x02156784        0x0 mainFont_Pal.o
 .data          0x02156784        0x0 mainFont_Tiles.o
 .data          0x02156784        0x0 sp_BigDollar_Pal.o
 .data          0x02156784        0x0 sp_BigDollar_Sprite.o
 .data          0x02156784        0x0 sp_bandit1_1a_Sprite.o
 .data          0x02156784        0x0 sp_bandit1_1b_Sprite.o
 .data          0x02156784        0x0 sp_bandit1_Pal.o
 .data          0x02156784        0x0 sp_bandit1_die_Pal.o
 .data          0x02156784        0x0 sp_bandit1_die_bot_Sprite.o
 .data          0x02156784        0x0 sp_bandit1_die_top_Sprite.o
 .data          0x02156784        0x0 sp_bandit_duel1_Pal.o
 .data          0x02156784        0x0 sp_bandit_duel1_a_Sprite.o
 .data          0x02156784        0x0 sp_bandit_duel1_b_Sprite.o
 .data          0x02156784        0x0 sp_bandit_duel1_background_Sprite.o
 .data          0x02156784        0x0 sp_bandit_duel1_c_Sprite.o
 .data          0x02156784        0x0 sp_bandit_duel1_dying_Sprite.o
 .data          0x02156784        0x0 sp_bandit_duel2_Pal.o
 .data          0x02156784        0x0 sp_bandit_duel2_a_Sprite.o
 .data          0x02156784        0x0 sp_bandit_duel2_b_Sprite.o
 .data          0x02156784        0x0 sp_bandit_duel2_background_Sprite.o
 .data          0x02156784        0x0 sp_bandit_duel2_c_Sprite.o
 .data          0x02156784        0x0 sp_bandit_duel2_dying_Sprite.o
 .data          0x02156784        0x0 sp_bandit_duel3_Pal.o
 .data          0x02156784        0x0 sp_bandit_duel3_a_Sprite.o
 .data          0x02156784        0x0 sp_bandit_duel3_b_Sprite.o
 .data          0x02156784        0x0 sp_bandit_duel3_background_Sprite.o
 .data          0x02156784        0x0 sp_bandit_duel3_c_Sprite.o
 .data          0x02156784        0x0 sp_bandit_duel3_dying_Sprite.o
 .data          0x02156784        0x0 sp_dolar_Sprite.o
 .data          0x02156784        0x0 sp_dollar_Pal.o
 .data          0x02156784        0x0 sp_doorsClose_bot_Sprite.o
 .data          0x02156784        0x0 sp_doorsClose_top_Sprite.o
 .data          0x02156784        0x0 sp_doorsOpen_bot_Sprite.o
 .data          0x02156784        0x0 sp_doorsOpen_top_Sprite.o
 .data          0x02156784        0x0 sp_doors_Pal.o
 .data          0x02156784        0x0 sp_hatman_Pal.o
 .data          0x02156784        0x0 sp_hatman_bot_Sprite.o
 .data          0x02156784        0x0 sp_hatman_top_Sprite.o
 .data          0x02156784        0x0 sp_life_Pal.o
 .data          0x02156784        0x0 sp_life_Sprite.o
 .data          0x02156784        0x0 sp_man_1a_Sprite.o
 .data          0x02156784        0x0 sp_man_1b_Sprite.o
 .data          0x02156784        0x0 sp_man_Pal.o
 .data          0x02156784        0x0 sp_man_die_Pal.o
 .data          0x02156784        0x0 sp_man_dying_bot_Sprite.o
 .data          0x02156784        0x0 sp_man_dying_top_Sprite.o
 .data          0x02156784        0x0 sp_menuStart_Pal.o
 .data          0x02156784        0x0 sp_menu_credits_1_Sprite.o
 .data          0x02156784        0x0 sp_menu_credits_2_Sprite.o
 .data          0x02156784        0x0 sp_menu_hiscores_1_Sprite.o
 .data          0x02156784        0x0 sp_menu_hiscores_2_Sprite.o
 .data          0x02156784        0x0 sp_menu_hiscores_3_Sprite.o
 .data          0x02156784        0x0 sp_menu_start_1_Sprite.o
 .data          0x02156784        0x0 sp_menu_start_2_Sprite.o
 .data          0x02156784        0x0 sp_menu_start_3_Sprite.o
 .data          0x02156784        0x0 sp_redBar_1_Sprite.o
 .data          0x02156784        0x0 sp_redBar_2_Sprite.o
 .data          0x02156784        0x0 sp_redBar_Pal.o
 .data          0x02156784        0x0 sp_shoot_Sprite.o
 .data          0x02156784        0x0 sp_woman_1a_Sprite.o
 .data          0x02156784        0x0 sp_woman_1b_Sprite.o
 .data          0x02156784        0x0 sp_woman_Pal.o
 .data          0x02156784        0x0 sp_woman_die_Pal.o
 .data          0x02156784        0x0 sp_woman_dying_bot_Sprite.o
 .data          0x02156784        0x0 sp_woman_dying_top_Sprite.o
 .data          0x02156784        0x0 soundbank_bin.o
 .data          0x02156784        0x0 bg_Splash_developedBy_1.o
 .data          0x02156784        0x0 bg_Splash_developedBy_2.o
 .data          0x02156784        0x0 bg_palib_1.o
 .data          0x02156784        0x0 bg_palib_2.o
 .data          0x02156784        0x0 logo.o
 .data          0x02156784        0x0 logo_wifi.o
 .data          0x02156784        0x0 utils.o
 .data          0x02156784        0x0 bg_bang.o
 .data          0x02156784        0x0 bg_boom.o
 .data          0x02156784        0x0 bg_desks.o
 .data          0x02156784        0x0 bg_doors.o
 .data          0x02156784        0x0 bg_duelStage.o
 .data          0x02156784        0x0 bg_intro.o
 .data          0x02156784        0x0 bg_mainMenu.o
 .data          0x02156784        0x0 bg_mainStage.o
 .data          0x02156784        0x0 mainFont.o
 .data          0x02156784        0x0 AnimationManager.o
 .data          0x02156784        0x0 ConfigPerson.o
 .data          0x02156784        0x0 Door.o
 .data          0x02156784        0x0 DuelStage.o
 .data          0x02156784        0x0 Game.o
 .data          0x02156784        0x0 LevelManager.o
 .data          0x02156784        0x0 MainStage.o
 .data          0x02156784        0x0 TextManager.o
 .data          0x02156784        0x0 UIManager.o
 .data          0x02156784        0x0 main.o
 .data          0x02156784        0x0 d:/devkitPro/PAlib/lib\libpa9.a(PA.o)
 .data          0x02156784        0x0 d:/devkitPro/PAlib/lib\libpa9.a(PA_BgEasy.o)
 .data          0x02156784        0x0 d:/devkitPro/PAlib/lib\libpa9.a(PA_BgLargeMap.o)
 .data          0x02156784       0x10 d:/devkitPro/PAlib/lib\libpa9.a(PA_BgTiles.o)
                0x02156784                bg_place
                0x02156788                bg_sizes
                0x02156790                charsetstart
 .data          0x02156794        0x0 d:/devkitPro/PAlib/lib\libpa9.a(PA_Draw.o)
 .data          0x02156794        0x0 d:/devkitPro/PAlib/lib\libpa9.a(PA_Draw8bit.o)
 .data          0x02156794        0x0 d:/devkitPro/PAlib/lib\libpa9.a(PA_Error.o)
 .data          0x02156794        0x0 d:/devkitPro/PAlib/lib\libpa9.a(PA_Gif.o)
 .data          0x02156794        0x0 d:/devkitPro/PAlib/lib\libpa9.a(PA_Inits.o)
 .data          0x02156794       0x14 d:/devkitPro/PAlib/lib\libpa9.a(PA_Interrupt.o)
                0x02156794                SpriteVBL
                0x02156798                MotionVBL
                0x0215679c                GHPadVBL
                0x021567a0                PaddleVBL
                0x021567a4                CustomVBL
 .data          0x021567a8        0x0 d:/devkitPro/PAlib/lib\libpa9.a(PA_Keys.o)
 .data          0x021567a8        0x4 d:/devkitPro/PAlib/lib\libpa9.a(PA_Math.o)
                0x021567a8                RandomValue
 .data          0x021567ac        0x0 d:/devkitPro/PAlib/lib\libpa9.a(PA_NewBg.o)
 .data          0x021567ac        0x0 d:/devkitPro/PAlib/lib\libpa9.a(PA_Palette.o)
 .data          0x021567ac        0x0 d:/devkitPro/PAlib/lib\libpa9.a(PA_RTC.o)
 .data          0x021567ac      0x204 d:/devkitPro/PAlib/lib\libpa9.a(PA_Reco.o)
                0x021567ac                PA_UseGraffiti
                0x021567b0                PA_Graffiti
 .data          0x021569b0        0x4 d:/devkitPro/PAlib/lib\libpa9.a(PA_Sprite.o)
                0x021569b0                VBLSpriteAnims
 .data          0x021569b4        0x0 d:/devkitPro/PAlib/lib\libpa9.a(PA_SpriteAnim.o)
 .data          0x021569b4        0x0 d:/devkitPro/PAlib/lib\libpa9.a(PA_Stuff.o)
 .data          0x021569b4        0x0 d:/devkitPro/PAlib/lib\libpa9.a(PA_Text.o)
 .data          0x021569b4       0x3c d:/devkitPro/PAlib/lib\libpa9.a(PA_Text8bit.o)
                0x021569b4                bit8_tiles
                0x021569dc                letters
 .data          0x021569f0       0x7c d:/devkitPro/PAlib/lib\libpa9.a(PA_TextBits.o)
                0x021569f0                textinfo
                0x021569f4                pa_bittextdefaultsize
                0x02156a1c                bittext_maps
                0x02156a44                bittext_tiles_blank
 .data          0x02156a6c        0x0 d:/devkitPro/PAlib/lib\libpa9.a(dgif_lib.o)
 .data          0x02156a6c        0x0 d:/devkitPro/PAlib/lib\libpa9.a(gif_err.o)
 .data          0x02156a6c        0x0 d:/devkitPro/PAlib/lib\libpa9.a(gifalloc.o)
 .data          0x02156a6c        0x0 d:/devkitPro/PAlib/lib\libpa9.a(PA_TiledFont.o)
 .data          0x02156a6c        0x0 d:/devkitPro/PAlib/lib\libpa9.a(PA_BmpFont0.o)
 .data          0x02156a6c        0x0 d:/devkitPro/PAlib/lib\libpa9.a(PA_BmpFont1.o)
 .data          0x02156a6c        0x0 d:/devkitPro/PAlib/lib\libpa9.a(PA_BmpFont2.o)
 .data          0x02156a6c        0x0 d:/devkitPro/PAlib/lib\libpa9.a(PA_BmpFont3.o)
 .data          0x02156a6c        0x0 d:/devkitPro/PAlib/lib\libpa9.a(PA_BmpFont4.o)
 .data          0x02156a6c        0x0 d:/devkitPro/PAlib/lib\libpa9.a(PA_TiledFont_Map.bin.o)
 .data          0x02156a6c        0x0 d:/devkitPro/PAlib/lib\libpa9.a(PA_TiledFont_Pal.bin.o)
 .data          0x02156a6c        0x0 d:/devkitPro/PAlib/lib\libpa9.a(PA_TiledFont_Tiles.bin.o)
 .data          0x02156a6c        0x0 d:/devkitPro/PAlib/lib\libpa9.a(PA_BmpFont0_Map.bin.o)
 .data          0x02156a6c        0x0 d:/devkitPro/PAlib/lib\libpa9.a(PA_BmpFont0_Sizes.bin.o)
 .data          0x02156a6c        0x0 d:/devkitPro/PAlib/lib\libpa9.a(PA_BmpFont0_Tiles.bin.o)
 .data          0x02156a6c        0x0 d:/devkitPro/PAlib/lib\libpa9.a(PA_BmpFont1_Map.bin.o)
 .data          0x02156a6c        0x0 d:/devkitPro/PAlib/lib\libpa9.a(PA_BmpFont1_Sizes.bin.o)
 .data          0x02156a6c        0x0 d:/devkitPro/PAlib/lib\libpa9.a(PA_BmpFont1_Tiles.bin.o)
 .data          0x02156a6c        0x0 d:/devkitPro/PAlib/lib\libpa9.a(PA_BmpFont2_Map.bin.o)
 .data          0x02156a6c        0x0 d:/devkitPro/PAlib/lib\libpa9.a(PA_BmpFont2_Sizes.bin.o)
 .data          0x02156a6c        0x0 d:/devkitPro/PAlib/lib\libpa9.a(PA_BmpFont2_Tiles.bin.o)
 .data          0x02156a6c        0x0 d:/devkitPro/PAlib/lib\libpa9.a(PA_BmpFont3_Map.bin.o)
 .data          0x02156a6c        0x0 d:/devkitPro/PAlib/lib\libpa9.a(PA_BmpFont3_Sizes.bin.o)
 .data          0x02156a6c        0x0 d:/devkitPro/PAlib/lib\libpa9.a(PA_BmpFont3_Tiles.bin.o)
 .data          0x02156a6c        0x0 d:/devkitPro/PAlib/lib\libpa9.a(PA_BmpFont4_Map.bin.o)
 .data          0x02156a6c        0x0 d:/devkitPro/PAlib/lib\libpa9.a(PA_BmpFont4_Sizes.bin.o)
 .data          0x02156a6c        0x0 d:/devkitPro/PAlib/lib\libpa9.a(PA_BmpFont4_Tiles.bin.o)
 .data          0x02156a6c       0x28 d:/devkitPro/PAlib/lib\libpa9.a(PA_16c.o)
                0x02156a6c                c16_tiles
 .data          0x02156a94        0xc d:/devkitPro/PAlib/lib\libpa9.a(PA_BgRot.o)
                0x02156a94                rotbg_place
                0x02156a98                rotbg_sizes
 .data          0x02156aa0        0x0 d:/devkitPro/PAlib/lib\libpa9.a(PA_Fifo.o)
 .data          0x02156aa0        0x0 d:/devkitPro/PAlib/lib\libpa9.a(PA_Keyboard.o)
 .data          0x02156aa0        0x0 d:/devkitPro/PAlib/lib\libpa9.a(PA_PaletteEx.o)
 .data          0x02156aa0        0x0 d:/devkitPro/PAlib/lib\libpa9.a(keyboard.map.o)
 .data          0x02156aa0        0x0 d:/devkitPro/PAlib/lib\libpa9.a(keyboard.pal.o)
 .data          0x02156aa0        0x0 d:/devkitPro/PAlib/lib\libpa9.a(keyboard.raw.o)
 .data          0x02156aa0        0x3 d:/devkitPro/libnds/lib\libnds9.a(keys.o)
 .data          0x02156aa3        0x0 d:/devkitPro/libnds/lib\libnds9.a(system.o)
 .data          0x02156aa3        0x0 d:/devkitPro/libnds/lib\libnds9.a(touch.o)
 .data          0x02156aa3        0x0 d:/devkitPro/libnds/lib\libnds9.a(video.o)
 .data          0x02156aa3        0x0 d:/devkitPro/libnds/lib\libnds9.a(initSystem.o)
 *fill*         0x02156aa3        0x1 ff
 .data          0x02156aa4       0x10 d:/devkitPro/libnds/lib\libnds9.a(fifosystem.o)
                0x02156aa4                fifo_freewords
                0x02156aa8                fifo_send_queue
                0x02156aac                fifo_buffer_free
                0x02156ab0                fifo_receive_queue
 .data          0x02156ab4        0x0 d:/devkitPro/libnds/lib\libnds9.a(interrupts.o)
 .data          0x02156ab4        0x0 d:/devkitPro/libnds/lib\libnds9.a(libnds_exit.o)
 .data          0x02156ab4        0x0 d:/devkitPro/libnds/lib\libnds9.a(dcache.o)
 .data          0x02156ab4        0x0 d:/devkitPro/libnds/lib\libnds9.a(mpu_setup.o)
 .data          0x02156ab4        0x0 d:/devkitPro/libnds/lib\libnds9.a(biosCalls.o)
 .data          0x02156ab4        0x0 d:/devkitPro/libnds/lib\libnds9.a(interruptDispatcher.o)
 .data          0x02156ab4        0x0 d:/devkitPro/libnds/lib\libmm9.a(mm_comms.o)
 .data          0x02156ab4        0x0 d:/devkitPro/libnds/lib\libmm9.a(mm_main9.o)
 .data          0x02156ab4        0x0 d:/devkitPro/libnds/lib\libmm9.a(mm_memory.o)
 .data          0x02156ab4        0x0 d:/devkitPro/libnds/lib\libmm9.a(mm_soundbank.o)
 .data          0x02156ab4        0x0 d:/devkitPro/libnds/lib\libmm9.a(mm_flusher.o)
 .data          0x02156ab4        0x0 d:/devkitpro/devkitarm/bin/../lib/gcc/arm-eabi/4.4.2/../../../../arm-eabi/lib/thumb\libstdc++.a(atexit_arm.o)
 .data          0x02156ab4        0x0 d:/devkitpro/devkitarm/bin/../lib/gcc/arm-eabi/4.4.2/thumb\libgcc.a(_udivsi3.o)
 .data          0x02156ab4        0x0 d:/devkitpro/devkitarm/bin/../lib/gcc/arm-eabi/4.4.2/thumb\libgcc.a(_divsi3.o)
 .data          0x02156ab4        0x0 d:/devkitpro/devkitarm/bin/../lib/gcc/arm-eabi/4.4.2/thumb\libgcc.a(_dvmd_tls.o)
 .data          0x02156ab4        0x0 d:/devkitpro/devkitarm/bin/../lib/gcc/arm-eabi/4.4.2/thumb\libgcc.a(_arm_addsubdf3.o)
 .data          0x02156ab4        0x0 d:/devkitpro/devkitarm/bin/../lib/gcc/arm-eabi/4.4.2/thumb\libgcc.a(_arm_muldivdf3.o)
 .data          0x02156ab4        0x0 d:/devkitpro/devkitarm/bin/../lib/gcc/arm-eabi/4.4.2/thumb\libgcc.a(_arm_cmpdf2.o)
 .data          0x02156ab4        0x0 d:/devkitpro/devkitarm/bin/../lib/gcc/arm-eabi/4.4.2/thumb\libgcc.a(_arm_fixdfsi.o)
 .data          0x02156ab4        0x0 d:/devkitpro/devkitarm/bin/../lib/gcc/arm-eabi/4.4.2/thumb\libgcc.a(_arm_addsubsf3.o)
 .data          0x02156ab4        0x0 d:/devkitpro/devkitarm/bin/../lib/gcc/arm-eabi/4.4.2/thumb\libgcc.a(_arm_muldivsf3.o)
 .data          0x02156ab4        0x0 d:/devkitpro/devkitarm/bin/../lib/gcc/arm-eabi/4.4.2/thumb\libgcc.a(_muldi3.o)
 .data          0x02156ab4        0x0 d:/devkitpro/devkitarm/bin/../lib/gcc/arm-eabi/4.4.2/../../../../arm-eabi/lib/thumb\libg.a(lib_a-calloc.o)
 .data          0x02156ab4        0x0 d:/devkitpro/devkitarm/bin/../lib/gcc/arm-eabi/4.4.2/../../../../arm-eabi/lib/thumb\libg.a(lib_a-callocr.o)
 .data          0x02156ab4        0x0 d:/devkitpro/devkitarm/bin/../lib/gcc/arm-eabi/4.4.2/../../../../arm-eabi/lib/thumb\libg.a(lib_a-cxa_atexit.o)
 .data          0x02156ab4        0x0 d:/devkitpro/devkitarm/bin/../lib/gcc/arm-eabi/4.4.2/../../../../arm-eabi/lib/thumb\libg.a(lib_a-fclose.o)
 .data          0x02156ab4        0x0 d:/devkitpro/devkitarm/bin/../lib/gcc/arm-eabi/4.4.2/../../../../arm-eabi/lib/thumb\libg.a(lib_a-fflush.o)
 .data          0x02156ab4        0x0 d:/devkitpro/devkitarm/bin/../lib/gcc/arm-eabi/4.4.2/../../../../arm-eabi/lib/thumb\libg.a(lib_a-findfp.o)
 .data          0x02156ab4        0x0 d:/devkitpro/devkitarm/bin/../lib/gcc/arm-eabi/4.4.2/../../../../arm-eabi/lib/thumb\libg.a(lib_a-fopen.o)
 .data          0x02156ab4        0x0 d:/devkitpro/devkitarm/bin/../lib/gcc/arm-eabi/4.4.2/../../../../arm-eabi/lib/thumb\libg.a(lib_a-fprintf.o)
 .data          0x02156ab4        0x0 d:/devkitpro/devkitarm/bin/../lib/gcc/arm-eabi/4.4.2/../../../../arm-eabi/lib/thumb\libg.a(lib_a-fread.o)
 .data          0x02156ab4        0x0 d:/devkitpro/devkitarm/bin/../lib/gcc/arm-eabi/4.4.2/../../../../arm-eabi/lib/thumb\libg.a(lib_a-freer.o)
 .data          0x02156ab4        0x0 d:/devkitpro/devkitarm/bin/../lib/gcc/arm-eabi/4.4.2/../../../../arm-eabi/lib/thumb\libg.a(lib_a-fseek.o)
 .data          0x02156ab4        0x0 d:/devkitpro/devkitarm/bin/../lib/gcc/arm-eabi/4.4.2/../../../../arm-eabi/lib/thumb\libg.a(lib_a-fwalk.o)
 .data          0x02156ab4        0x0 d:/devkitpro/devkitarm/bin/../lib/gcc/arm-eabi/4.4.2/../../../../arm-eabi/lib/thumb\libg.a(lib_a-gmtime.o)
 .data          0x02156ab4        0x0 d:/devkitpro/devkitarm/bin/../lib/gcc/arm-eabi/4.4.2/../../../../arm-eabi/lib/thumb\libg.a(lib_a-gmtime_r.o)
 *fill*         0x02156ab4        0x4 ff
 .data          0x02156ab8      0x430 d:/devkitpro/devkitarm/bin/../lib/gcc/arm-eabi/4.4.2/../../../../arm-eabi/lib/thumb\libg.a(lib_a-impure.o)
                0x02156ab8                _impure_ptr
 .data          0x02156ee8        0x0 d:/devkitpro/devkitarm/bin/../lib/gcc/arm-eabi/4.4.2/../../../../arm-eabi/lib/thumb\libg.a(lib_a-init.o)
 .data          0x02156ee8       0x38 d:/devkitpro/devkitarm/bin/../lib/gcc/arm-eabi/4.4.2/../../../../arm-eabi/lib/thumb\libg.a(lib_a-locale.o)
                0x02156ef8                __lc_ctype
                0x02156f1c                __mb_cur_max
 .data          0x02156f20        0x0 d:/devkitpro/devkitarm/bin/../lib/gcc/arm-eabi/4.4.2/../../../../arm-eabi/lib/thumb\libg.a(lib_a-makebuf.o)
 .data          0x02156f20        0x0 d:/devkitpro/devkitarm/bin/../lib/gcc/arm-eabi/4.4.2/../../../../arm-eabi/lib/thumb\libg.a(lib_a-malloc.o)
 .data          0x02156f20      0x410 d:/devkitpro/devkitarm/bin/../lib/gcc/arm-eabi/4.4.2/../../../../arm-eabi/lib/thumb\libg.a(lib_a-mallocr.o)
                0x02156f20                __malloc_av_
                0x02157328                __malloc_sbrk_base
                0x0215732c                __malloc_trim_threshold
 .data          0x02157330        0x0 d:/devkitpro/devkitarm/bin/../lib/gcc/arm-eabi/4.4.2/../../../../arm-eabi/lib/thumb\libg.a(lib_a-memcmp.o)
 .data          0x02157330        0x0 d:/devkitpro/devkitarm/bin/../lib/gcc/arm-eabi/4.4.2/../../../../arm-eabi/lib/thumb\libg.a(lib_a-memcpy.o)
 .data          0x02157330        0x0 d:/devkitpro/devkitarm/bin/../lib/gcc/arm-eabi/4.4.2/../../../../arm-eabi/lib/thumb\libg.a(lib_a-memset.o)
 .data          0x02157330        0x0 d:/devkitpro/devkitarm/bin/../lib/gcc/arm-eabi/4.4.2/../../../../arm-eabi/lib/thumb\libg.a(lib_a-mktm_r.o)
 .data          0x02157330        0x0 d:/devkitpro/devkitarm/bin/../lib/gcc/arm-eabi/4.4.2/../../../../arm-eabi/lib/thumb\libg.a(lib_a-mlock.o)
 .data          0x02157330        0x0 d:/devkitpro/devkitarm/bin/../lib/gcc/arm-eabi/4.4.2/../../../../arm-eabi/lib/thumb\libg.a(lib_a-realloc.o)
 .data          0x02157330        0x0 d:/devkitpro/devkitarm/bin/../lib/gcc/arm-eabi/4.4.2/../../../../arm-eabi/lib/thumb\libg.a(lib_a-reallocr.o)
 .data          0x02157330        0x0 d:/devkitpro/devkitarm/bin/../lib/gcc/arm-eabi/4.4.2/../../../../arm-eabi/lib/thumb\libg.a(lib_a-refill.o)
 .data          0x02157330        0x0 d:/devkitpro/devkitarm/bin/../lib/gcc/arm-eabi/4.4.2/../../../../arm-eabi/lib/thumb\libg.a(lib_a-sprintf.o)
 .data          0x02157330        0x0 d:/devkitpro/devkitarm/bin/../lib/gcc/arm-eabi/4.4.2/../../../../arm-eabi/lib/thumb\libg.a(lib_a-stdio.o)
 .data          0x02157330        0x0 d:/devkitpro/devkitarm/bin/../lib/gcc/arm-eabi/4.4.2/../../../../arm-eabi/lib/thumb\libg.a(lib_a-strcasecmp.o)
 .data          0x02157330        0x0 d:/devkitpro/devkitarm/bin/../lib/gcc/arm-eabi/4.4.2/../../../../arm-eabi/lib/thumb\libg.a(lib_a-strcat.o)
 .data          0x02157330        0x0 d:/devkitpro/devkitarm/bin/../lib/gcc/arm-eabi/4.4.2/../../../../arm-eabi/lib/thumb\libg.a(lib_a-strcmp.o)
 .data          0x02157330        0x0 d:/devkitpro/devkitarm/bin/../lib/gcc/arm-eabi/4.4.2/../../../../arm-eabi/lib/thumb\libg.a(lib_a-strcpy.o)
 .data          0x02157330        0x0 d:/devkitpro/devkitarm/bin/../lib/gcc/arm-eabi/4.4.2/../../../../arm-eabi/lib/thumb\libg.a(lib_a-strlen.o)
 .data          0x02157330        0x0 d:/devkitpro/devkitarm/bin/../lib/gcc/arm-eabi/4.4.2/../../../../arm-eabi/lib/thumb\libg.a(lib_a-svfprintf.o)
 .data          0x02157330        0x0 d:/devkitpro/devkitarm/bin/../lib/gcc/arm-eabi/4.4.2/../../../../arm-eabi/lib/thumb\libg.a(lib_a-sysstat.o)
 .data          0x02157330        0x0 d:/devkitpro/devkitarm/bin/../lib/gcc/arm-eabi/4.4.2/../../../../arm-eabi/lib/thumb\libg.a(lib_a-time.o)
 .data          0x02157330        0x0 d:/devkitpro/devkitarm/bin/../lib/gcc/arm-eabi/4.4.2/../../../../arm-eabi/lib/thumb\libg.a(lib_a-tzlock.o)
 .data          0x02157330        0x8 d:/devkitpro/devkitarm/bin/../lib/gcc/arm-eabi/4.4.2/../../../../arm-eabi/lib/thumb\libg.a(lib_a-tzvars.o)
                0x02157330                _tzname
 .data          0x02157338        0x0 d:/devkitpro/devkitarm/bin/../lib/gcc/arm-eabi/4.4.2/../../../../arm-eabi/lib/thumb\libg.a(lib_a-vfprintf.o)
 .data          0x02157338        0x0 d:/devkitpro/devkitarm/bin/../lib/gcc/arm-eabi/4.4.2/../../../../arm-eabi/lib/thumb\libg.a(lib_a-wcrtomb.o)
 .data          0x02157338        0x0 d:/devkitpro/devkitarm/bin/../lib/gcc/arm-eabi/4.4.2/../../../../arm-eabi/lib/thumb\libg.a(lib_a-wcsrtombs.o)
 .data          0x02157338        0x0 d:/devkitpro/devkitarm/bin/../lib/gcc/arm-eabi/4.4.2/../../../../arm-eabi/lib/thumb\libg.a(lib_a-wctomb_r.o)
 .data          0x02157338        0x0 d:/devkitpro/devkitarm/bin/../lib/gcc/arm-eabi/4.4.2/../../../../arm-eabi/lib/thumb\libg.a(lib_a-wsetup.o)
 .data          0x02157338        0x0 d:/devkitpro/devkitarm/bin/../lib/gcc/arm-eabi/4.4.2/../../../../arm-eabi/lib/thumb\libg.a(lib_a-__atexit.o)
 .data          0x02157338        0x8 d:/devkitpro/devkitarm/bin/../lib/gcc/arm-eabi/4.4.2/../../../../arm-eabi/lib/thumb\libg.a(lib_a-ctype_.o)
                0x02157338                __ctype_ptr
                0x0215733c                __ctype_ptr__
 .data          0x02157340        0x0 d:/devkitpro/devkitarm/bin/../lib/gcc/arm-eabi/4.4.2/../../../../arm-eabi/lib/thumb\libg.a(lib_a-dtoa.o)
 .data          0x02157340        0x0 d:/devkitpro/devkitarm/bin/../lib/gcc/arm-eabi/4.4.2/../../../../arm-eabi/lib/thumb\libg.a(lib_a-flags.o)
 .data          0x02157340        0x0 d:/devkitpro/devkitarm/bin/../lib/gcc/arm-eabi/4.4.2/../../../../arm-eabi/lib/thumb\libg.a(lib_a-fvwrite.o)
 .data          0x02157340       0x40 d:/devkitpro/devkitarm/bin/../lib/gcc/arm-eabi/4.4.2/../../../../arm-eabi/lib/thumb\libg.a(lib_a-gettzinfo.o)
 .data          0x02157380        0x0 d:/devkitpro/devkitarm/bin/../lib/gcc/arm-eabi/4.4.2/../../../../arm-eabi/lib/thumb\libg.a(lib_a-mbtowc_r.o)
 .data          0x02157380        0x0 d:/devkitpro/devkitarm/bin/../lib/gcc/arm-eabi/4.4.2/../../../../arm-eabi/lib/thumb\libg.a(lib_a-memchr.o)
 .data          0x02157380        0x0 d:/devkitpro/devkitarm/bin/../lib/gcc/arm-eabi/4.4.2/../../../../arm-eabi/lib/thumb\libg.a(lib_a-memmove.o)
 .data          0x02157380        0x0 d:/devkitpro/devkitarm/bin/../lib/gcc/arm-eabi/4.4.2/../../../../arm-eabi/lib/thumb\libg.a(lib_a-mprec.o)
 .data          0x02157380        0x0 d:/devkitpro/devkitarm/bin/../lib/gcc/arm-eabi/4.4.2/../../../../arm-eabi/lib/thumb\libg.a(lib_a-s_isinfd.o)
 .data          0x02157380        0x0 d:/devkitpro/devkitarm/bin/../lib/gcc/arm-eabi/4.4.2/../../../../arm-eabi/lib/thumb\libg.a(lib_a-s_isnand.o)
 .data          0x02157380        0x0 d:/devkitpro/devkitarm/bin/../lib/gcc/arm-eabi/4.4.2/../../../../arm-eabi/lib/thumb\libsysbase.a(close.o)
 .data          0x02157380        0x0 d:/devkitpro/devkitarm/bin/../lib/gcc/arm-eabi/4.4.2/../../../../arm-eabi/lib/thumb\libsysbase.a(fstat.o)
 .data          0x02157380        0x0 d:/devkitpro/devkitarm/bin/../lib/gcc/arm-eabi/4.4.2/../../../../arm-eabi/lib/thumb\libsysbase.a(isatty.o)
 .data          0x02157380        0x0 d:/devkitpro/devkitarm/bin/../lib/gcc/arm-eabi/4.4.2/../../../../arm-eabi/lib/thumb\libsysbase.a(lseek.o)
 .data          0x02157380        0x0 d:/devkitpro/devkitarm/bin/../lib/gcc/arm-eabi/4.4.2/../../../../arm-eabi/lib/thumb\libsysbase.a(open.o)
 .data          0x02157380        0x0 d:/devkitpro/devkitarm/bin/../lib/gcc/arm-eabi/4.4.2/../../../../arm-eabi/lib/thumb\libsysbase.a(read.o)
 .data          0x02157380        0x0 d:/devkitpro/devkitarm/bin/../lib/gcc/arm-eabi/4.4.2/../../../../arm-eabi/lib/thumb\libsysbase.a(sbrk.o)
 .data          0x02157380        0x0 d:/devkitpro/devkitarm/bin/../lib/gcc/arm-eabi/4.4.2/../../../../arm-eabi/lib/thumb\libsysbase.a(stat.o)
 .data          0x02157380        0x0 d:/devkitpro/devkitarm/bin/../lib/gcc/arm-eabi/4.4.2/../../../../arm-eabi/lib/thumb\libsysbase.a(times.o)
 .data          0x02157380        0x0 d:/devkitpro/devkitarm/bin/../lib/gcc/arm-eabi/4.4.2/../../../../arm-eabi/lib/thumb\libsysbase.a(write.o)
 .data          0x02157380        0x0 d:/devkitpro/devkitarm/bin/../lib/gcc/arm-eabi/4.4.2/../../../../arm-eabi/lib/thumb\libsysbase.a(malloc_vars.o)
 .data          0x02157380        0x0 d:/devkitpro/devkitarm/bin/../lib/gcc/arm-eabi/4.4.2/../../../../arm-eabi/lib/thumb\libsysbase.a(build_argv.o)
 .data          0x02157380        0x0 d:/devkitpro/devkitarm/bin/../lib/gcc/arm-eabi/4.4.2/../../../../arm-eabi/lib/thumb\libsysbase.a(handle_manager.o)
 .data          0x02157380        0x0 d:/devkitpro/devkitarm/bin/../lib/gcc/arm-eabi/4.4.2/../../../../arm-eabi/lib/thumb\libsysbase.a(dirent.o)
 .data          0x02157380       0x44 d:/devkitpro/devkitarm/bin/../lib/gcc/arm-eabi/4.4.2/../../../../arm-eabi/lib/thumb\libsysbase.a(iosupport.o)
                0x02157384                devoptab_list
 .data          0x021573c4        0x0 d:/devkitpro/devkitarm/bin/../lib/gcc/arm-eabi/4.4.2/../../../../arm-eabi/lib/thumb\libsysbase.a(dir.o)
 .data          0x021573c4        0x0 d:/devkitpro/devkitarm/bin/../lib/gcc/arm-eabi/4.4.2/../../../../arm-eabi/lib/thumb\libg.a(lib_a-errno.o)
 .data          0x021573c4        0x0 d:/devkitpro/devkitarm/bin/../lib/gcc/arm-eabi/4.4.2/../../../../arm-eabi/lib/thumb\libg.a(lib_a-strchr.o)
 .data          0x021573c4        0x0 d:/devkitpro/devkitarm/bin/../lib/gcc/arm-eabi/4.4.2/../../../../arm-eabi/lib/thumb\libg.a(lib_a-strncmp.o)
 .data          0x021573c4        0x0 d:/devkitpro/devkitarm/bin/../lib/gcc/arm-eabi/4.4.2/../../../../arm-eabi/lib/thumb\libg.a(lib_a-strncpy.o)
 .data          0x021573c4        0x0 d:/devkitpro/devkitarm/bin/../lib/gcc/arm-eabi/4.4.2/../../../../arm-eabi/lib/thumb\libg.a(lib_a-strnlen.o)
 .data          0x021573c4        0x0 d:/devkitpro/devkitarm/bin/../lib/gcc/arm-eabi/4.4.2/thumb/crtend.o
 .data          0x021573c4        0x0 d:/devkitpro/devkitarm/bin/../lib/gcc/arm-eabi/4.4.2/thumb/crtn.o
 *(.data.*)
 *(.gnu.linkonce.d*)
                0x021573c4                . = ALIGN (0x4)
                0x021573c4                __data_end = ABSOLUTE (.)
                0x021573c4                __dtcm_lma = .
                0x021573c4                __bss_vma = .

.dtcm           0x0b000000        0x0 load address 0x021573c4
 *(.dtcm)
 *(.dtcm.*)
                0x0b000000                . = ALIGN (0x4)
                0x0b000000                __dtcm_end = ABSOLUTE (.)
                0x021573c4                __itcm_lma = (__dtcm_lma + SIZEOF (.dtcm))

.itcm           0x01000100      0x190 load address 0x021573c4
 *(.itcm)
 .itcm          0x01000100       0xc8 d:/devkitPro/libnds/lib\libnds9.a(interrupts.o)
                0x01000100                irqTable
 .itcm          0x010001c8       0xc8 d:/devkitPro/libnds/lib\libnds9.a(interruptDispatcher.o)
                0x010001c8                IntrMain
 *itcm.*(.text)
                0x01000290                . = ALIGN (0x4)
                0x01000290                __itcm_end = ABSOLUTE (.)
                0x02157554                __vectors_lma = (__itcm_lma + SIZEOF (.itcm))

.vectors        0x01000000        0x0 load address 0x02157554
 *(.vectors)
 *vectors.*(.text)
                0x01000000                . = ALIGN (0x4)
                0x01000000                __vectors_end = ABSOLUTE (.)

.sbss           0x0b000000        0x0
                0x0b000000                __sbss_start = ABSOLUTE (.)
                0x0b000000                __sbss_start__ = ABSOLUTE (.)
 *(.sbss)
                0x0b000000                . = ALIGN (0x4)
                0x0b000000                __sbss_end = ABSOLUTE (.)

.bss            0x021573c4    0x187c0
                0x021573c4                __bss_start = ABSOLUTE (.)
                0x021573c4                __bss_start__ = ABSOLUTE (.)
 *(.dynbss)
 *(.gnu.linkonce.b*)
 *(.bss*)
 .bss           0x021573c4        0x0 d:/devkitpro/devkitarm/bin/../lib/gcc/arm-eabi/4.4.2/../../../../arm-eabi/lib/thumb/ds_arm9_crt0.o
 .bss           0x021573c4        0x0 d:/devkitpro/devkitarm/bin/../lib/gcc/arm-eabi/4.4.2/thumb/crti.o
 .bss           0x021573c4       0x1c d:/devkitpro/devkitarm/bin/../lib/gcc/arm-eabi/4.4.2/thumb/crtbegin.o
 .bss           0x021573e0        0x0 bg_bang_Map.o
 .bss           0x021573e0        0x0 bg_bang_Pal.o
 .bss           0x021573e0        0x0 bg_bang_Tiles.o
 .bss           0x021573e0        0x0 bg_boom_Map.o
 .bss           0x021573e0        0x0 bg_boom_Pal.o
 .bss           0x021573e0        0x0 bg_boom_Tiles.o
 .bss           0x021573e0        0x0 bg_desks_Map.o
 .bss           0x021573e0        0x0 bg_desks_Pal.o
 .bss           0x021573e0        0x0 bg_desks_Tiles.o
 .bss           0x021573e0        0x0 bg_doors_Map.o
 .bss           0x021573e0        0x0 bg_doors_Pal.o
 .bss           0x021573e0        0x0 bg_doors_Tiles.o
 .bss           0x021573e0        0x0 bg_duelStage_Map.o
 .bss           0x021573e0        0x0 bg_duelStage_Pal.o
 .bss           0x021573e0        0x0 bg_duelStage_Tiles.o
 .bss           0x021573e0        0x0 bg_intro_Map.o
 .bss           0x021573e0        0x0 bg_intro_Pal.o
 .bss           0x021573e0        0x0 bg_intro_Tiles.o
 .bss           0x021573e0        0x0 bg_mainMenu_Map.o
 .bss           0x021573e0        0x0 bg_mainMenu_Pal.o
 .bss           0x021573e0        0x0 bg_mainMenu_Tiles.o
 .bss           0x021573e0        0x0 bg_mainStage_Map.o
 .bss           0x021573e0        0x0 bg_mainStage_Pal.o
 .bss           0x021573e0        0x0 bg_mainStage_Tiles.o
 .bss           0x021573e0        0x0 mainFont_Map.o
 .bss           0x021573e0        0x0 mainFont_Pal.o
 .bss           0x021573e0        0x0 mainFont_Tiles.o
 .bss           0x021573e0        0x0 sp_BigDollar_Pal.o
 .bss           0x021573e0        0x0 sp_BigDollar_Sprite.o
 .bss           0x021573e0        0x0 sp_bandit1_1a_Sprite.o
 .bss           0x021573e0        0x0 sp_bandit1_1b_Sprite.o
 .bss           0x021573e0        0x0 sp_bandit1_Pal.o
 .bss           0x021573e0        0x0 sp_bandit1_die_Pal.o
 .bss           0x021573e0        0x0 sp_bandit1_die_bot_Sprite.o
 .bss           0x021573e0        0x0 sp_bandit1_die_top_Sprite.o
 .bss           0x021573e0        0x0 sp_bandit_duel1_Pal.o
 .bss           0x021573e0        0x0 sp_bandit_duel1_a_Sprite.o
 .bss           0x021573e0        0x0 sp_bandit_duel1_b_Sprite.o
 .bss           0x021573e0        0x0 sp_bandit_duel1_background_Sprite.o
 .bss           0x021573e0        0x0 sp_bandit_duel1_c_Sprite.o
 .bss           0x021573e0        0x0 sp_bandit_duel1_dying_Sprite.o
 .bss           0x021573e0        0x0 sp_bandit_duel2_Pal.o
 .bss           0x021573e0        0x0 sp_bandit_duel2_a_Sprite.o
 .bss           0x021573e0        0x0 sp_bandit_duel2_b_Sprite.o
 .bss           0x021573e0        0x0 sp_bandit_duel2_background_Sprite.o
 .bss           0x021573e0        0x0 sp_bandit_duel2_c_Sprite.o
 .bss           0x021573e0        0x0 sp_bandit_duel2_dying_Sprite.o
 .bss           0x021573e0        0x0 sp_bandit_duel3_Pal.o
 .bss           0x021573e0        0x0 sp_bandit_duel3_a_Sprite.o
 .bss           0x021573e0        0x0 sp_bandit_duel3_b_Sprite.o
 .bss           0x021573e0        0x0 sp_bandit_duel3_background_Sprite.o
 .bss           0x021573e0        0x0 sp_bandit_duel3_c_Sprite.o
 .bss           0x021573e0        0x0 sp_bandit_duel3_dying_Sprite.o
 .bss           0x021573e0        0x0 sp_dolar_Sprite.o
 .bss           0x021573e0        0x0 sp_dollar_Pal.o
 .bss           0x021573e0        0x0 sp_doorsClose_bot_Sprite.o
 .bss           0x021573e0        0x0 sp_doorsClose_top_Sprite.o
 .bss           0x021573e0        0x0 sp_doorsOpen_bot_Sprite.o
 .bss           0x021573e0        0x0 sp_doorsOpen_top_Sprite.o
 .bss           0x021573e0        0x0 sp_doors_Pal.o
 .bss           0x021573e0        0x0 sp_hatman_Pal.o
 .bss           0x021573e0        0x0 sp_hatman_bot_Sprite.o
 .bss           0x021573e0        0x0 sp_hatman_top_Sprite.o
 .bss           0x021573e0        0x0 sp_life_Pal.o
 .bss           0x021573e0        0x0 sp_life_Sprite.o
 .bss           0x021573e0        0x0 sp_man_1a_Sprite.o
 .bss           0x021573e0        0x0 sp_man_1b_Sprite.o
 .bss           0x021573e0        0x0 sp_man_Pal.o
 .bss           0x021573e0        0x0 sp_man_die_Pal.o
 .bss           0x021573e0        0x0 sp_man_dying_bot_Sprite.o
 .bss           0x021573e0        0x0 sp_man_dying_top_Sprite.o
 .bss           0x021573e0        0x0 sp_menuStart_Pal.o
 .bss           0x021573e0        0x0 sp_menu_credits_1_Sprite.o
 .bss           0x021573e0        0x0 sp_menu_credits_2_Sprite.o
 .bss           0x021573e0        0x0 sp_menu_hiscores_1_Sprite.o
 .bss           0x021573e0        0x0 sp_menu_hiscores_2_Sprite.o
 .bss           0x021573e0        0x0 sp_menu_hiscores_3_Sprite.o
 .bss           0x021573e0        0x0 sp_menu_start_1_Sprite.o
 .bss           0x021573e0        0x0 sp_menu_start_2_Sprite.o
 .bss           0x021573e0        0x0 sp_menu_start_3_Sprite.o
 .bss           0x021573e0        0x0 sp_redBar_1_Sprite.o
 .bss           0x021573e0        0x0 sp_redBar_2_Sprite.o
 .bss           0x021573e0        0x0 sp_redBar_Pal.o
 .bss           0x021573e0        0x0 sp_shoot_Sprite.o
 .bss           0x021573e0        0x0 sp_woman_1a_Sprite.o
 .bss           0x021573e0        0x0 sp_woman_1b_Sprite.o
 .bss           0x021573e0        0x0 sp_woman_Pal.o
 .bss           0x021573e0        0x0 sp_woman_die_Pal.o
 .bss           0x021573e0        0x0 sp_woman_dying_bot_Sprite.o
 .bss           0x021573e0        0x0 sp_woman_dying_top_Sprite.o
 .bss           0x021573e0        0x0 soundbank_bin.o
 .bss           0x021573e0        0x0 bg_Splash_developedBy_1.o
 .bss           0x021573e0        0x0 bg_Splash_developedBy_2.o
 .bss           0x021573e0        0x0 bg_palib_1.o
 .bss           0x021573e0        0x0 bg_palib_2.o
 .bss           0x021573e0        0x0 logo.o
 .bss           0x021573e0        0x0 logo_wifi.o
 .bss           0x021573e0        0x1 utils.o
 .bss           0x021573e1        0x0 bg_bang.o
 .bss           0x021573e1        0x0 bg_boom.o
 .bss           0x021573e1        0x0 bg_desks.o
 .bss           0x021573e1        0x0 bg_doors.o
 .bss           0x021573e1        0x0 bg_duelStage.o
 .bss           0x021573e1        0x0 bg_intro.o
 .bss           0x021573e1        0x0 bg_mainMenu.o
 .bss           0x021573e1        0x0 bg_mainStage.o
 .bss           0x021573e1        0x0 mainFont.o
 .bss           0x021573e1        0x0 AnimationManager.o
 .bss           0x021573e1        0x0 ConfigPerson.o
 .bss           0x021573e1        0x0 Door.o
 .bss           0x021573e1        0x0 DuelStage.o
 .bss           0x021573e1        0x0 Game.o
 .bss           0x021573e1        0x0 LevelManager.o
 .bss           0x021573e1        0x0 MainStage.o
 .bss           0x021573e1        0x0 TextManager.o
 .bss           0x021573e1        0x0 UIManager.o
 *fill*         0x021573e1        0x3 00
 .bss           0x021573e4       0x24 main.o
                0x021573e4                levelManager
                0x021573e8                arrAnimations
 .bss           0x02157408        0x4 d:/devkitPro/PAlib/lib\libpa9.a(PA.o)
                0x02157408                pa_giftotexcolor
                0x0215740a                PA_Screen
                0x0215740b                PA_MoveSpriteType
 .bss           0x0215740c        0x0 d:/devkitPro/PAlib/lib\libpa9.a(PA_BgEasy.o)
 .bss           0x0215740c        0x0 d:/devkitPro/PAlib/lib\libpa9.a(PA_BgLargeMap.o)
 .bss           0x0215740c        0x0 d:/devkitPro/PAlib/lib\libpa9.a(PA_BgTiles.o)
 .bss           0x0215740c        0x0 d:/devkitPro/PAlib/lib\libpa9.a(PA_Draw.o)
 .bss           0x0215740c        0x0 d:/devkitPro/PAlib/lib\libpa9.a(PA_Draw8bit.o)
 .bss           0x0215740c        0x0 d:/devkitPro/PAlib/lib\libpa9.a(PA_Error.o)
 .bss           0x0215740c        0x0 d:/devkitPro/PAlib/lib\libpa9.a(PA_Gif.o)
 .bss           0x0215740c        0x0 d:/devkitPro/PAlib/lib\libpa9.a(PA_Inits.o)
 .bss           0x0215740c        0x0 d:/devkitPro/PAlib/lib\libpa9.a(PA_Interrupt.o)
 .bss           0x0215740c        0x0 d:/devkitPro/PAlib/lib\libpa9.a(PA_Keys.o)
 .bss           0x0215740c        0x0 d:/devkitPro/PAlib/lib\libpa9.a(PA_Math.o)
 .bss           0x0215740c        0x0 d:/devkitPro/PAlib/lib\libpa9.a(PA_NewBg.o)
 .bss           0x0215740c        0x0 d:/devkitPro/PAlib/lib\libpa9.a(PA_Palette.o)
 .bss           0x0215740c        0x0 d:/devkitPro/PAlib/lib\libpa9.a(PA_RTC.o)
 .bss           0x0215740c        0x1 d:/devkitPro/PAlib/lib\libpa9.a(PA_Reco.o)
                0x0215740c                PA_CustomReco
 *fill*         0x0215740d        0x3 00
 .bss           0x02157410        0xc d:/devkitPro/PAlib/lib\libpa9.a(PA_Sprite.o)
                0x02157410                PA_SpriteExtPrio
                0x02157414                FirstGfx
                0x02157418                nspriteanims
 .bss           0x0215741c        0x0 d:/devkitPro/PAlib/lib\libpa9.a(PA_SpriteAnim.o)
 .bss           0x0215741c        0x0 d:/devkitPro/PAlib/lib\libpa9.a(PA_Stuff.o)
 .bss           0x0215741c        0x8 d:/devkitPro/PAlib/lib\libpa9.a(PA_Text.o)
                0x0215741c                PAtext_pal
                0x02157420                PA_font
 .bss           0x02157424        0x0 d:/devkitPro/PAlib/lib\libpa9.a(PA_Text8bit.o)
 .bss           0x02157424        0x0 d:/devkitPro/PAlib/lib\libpa9.a(PA_TextBits.o)
 .bss           0x02157424        0x0 d:/devkitPro/PAlib/lib\libpa9.a(dgif_lib.o)
 .bss           0x02157424        0x4 d:/devkitPro/PAlib/lib\libpa9.a(gif_err.o)
                0x02157424                _GifError
 .bss           0x02157428        0x0 d:/devkitPro/PAlib/lib\libpa9.a(gifalloc.o)
 .bss           0x02157428        0x0 d:/devkitPro/PAlib/lib\libpa9.a(PA_TiledFont.o)
 .bss           0x02157428        0x0 d:/devkitPro/PAlib/lib\libpa9.a(PA_BmpFont0.o)
 .bss           0x02157428        0x0 d:/devkitPro/PAlib/lib\libpa9.a(PA_BmpFont1.o)
 .bss           0x02157428        0x0 d:/devkitPro/PAlib/lib\libpa9.a(PA_BmpFont2.o)
 .bss           0x02157428        0x0 d:/devkitPro/PAlib/lib\libpa9.a(PA_BmpFont3.o)
 .bss           0x02157428        0x0 d:/devkitPro/PAlib/lib\libpa9.a(PA_BmpFont4.o)
 .bss           0x02157428        0x0 d:/devkitPro/PAlib/lib\libpa9.a(PA_TiledFont_Map.bin.o)
 .bss           0x02157428        0x0 d:/devkitPro/PAlib/lib\libpa9.a(PA_TiledFont_Pal.bin.o)
 .bss           0x02157428        0x0 d:/devkitPro/PAlib/lib\libpa9.a(PA_TiledFont_Tiles.bin.o)
 .bss           0x02157428        0x0 d:/devkitPro/PAlib/lib\libpa9.a(PA_BmpFont0_Map.bin.o)
 .bss           0x02157428        0x0 d:/devkitPro/PAlib/lib\libpa9.a(PA_BmpFont0_Sizes.bin.o)
 .bss           0x02157428        0x0 d:/devkitPro/PAlib/lib\libpa9.a(PA_BmpFont0_Tiles.bin.o)
 .bss           0x02157428        0x0 d:/devkitPro/PAlib/lib\libpa9.a(PA_BmpFont1_Map.bin.o)
 .bss           0x02157428        0x0 d:/devkitPro/PAlib/lib\libpa9.a(PA_BmpFont1_Sizes.bin.o)
 .bss           0x02157428        0x0 d:/devkitPro/PAlib/lib\libpa9.a(PA_BmpFont1_Tiles.bin.o)
 .bss           0x02157428        0x0 d:/devkitPro/PAlib/lib\libpa9.a(PA_BmpFont2_Map.bin.o)
 .bss           0x02157428        0x0 d:/devkitPro/PAlib/lib\libpa9.a(PA_BmpFont2_Sizes.bin.o)
 .bss           0x02157428        0x0 d:/devkitPro/PAlib/lib\libpa9.a(PA_BmpFont2_Tiles.bin.o)
 .bss           0x02157428        0x0 d:/devkitPro/PAlib/lib\libpa9.a(PA_BmpFont3_Map.bin.o)
 .bss           0x02157428        0x0 d:/devkitPro/PAlib/lib\libpa9.a(PA_BmpFont3_Sizes.bin.o)
 .bss           0x02157428        0x0 d:/devkitPro/PAlib/lib\libpa9.a(PA_BmpFont3_Tiles.bin.o)
 .bss           0x02157428        0x0 d:/devkitPro/PAlib/lib\libpa9.a(PA_BmpFont4_Map.bin.o)
 .bss           0x02157428        0x0 d:/devkitPro/PAlib/lib\libpa9.a(PA_BmpFont4_Sizes.bin.o)
 .bss           0x02157428        0x0 d:/devkitPro/PAlib/lib\libpa9.a(PA_BmpFont4_Tiles.bin.o)
 .bss           0x02157428        0x0 d:/devkitPro/PAlib/lib\libpa9.a(PA_16c.o)
 .bss           0x02157428        0x0 d:/devkitPro/PAlib/lib\libpa9.a(PA_BgRot.o)
 .bss           0x02157428        0x0 d:/devkitPro/PAlib/lib\libpa9.a(PA_Fifo.o)
 .bss           0x02157428        0x1 d:/devkitPro/PAlib/lib\libpa9.a(PA_Keyboard.o)
                0x02157428                keyb_screen
 .bss           0x02157429        0x0 d:/devkitPro/PAlib/lib\libpa9.a(PA_PaletteEx.o)
 .bss           0x02157429        0x0 d:/devkitPro/PAlib/lib\libpa9.a(keyboard.map.o)
 .bss           0x02157429        0x0 d:/devkitPro/PAlib/lib\libpa9.a(keyboard.pal.o)
 .bss           0x02157429        0x0 d:/devkitPro/PAlib/lib\libpa9.a(keyboard.raw.o)
 *fill*         0x02157429        0x1 00
 .bss           0x0215742a        0x6 d:/devkitPro/libnds/lib\libnds9.a(keys.o)
 .bss           0x02157430        0x0 d:/devkitPro/libnds/lib\libnds9.a(system.o)
 .bss           0x02157430        0x0 d:/devkitPro/libnds/lib\libnds9.a(touch.o)
 .bss           0x02157430        0x0 d:/devkitPro/libnds/lib\libnds9.a(video.o)
 .bss           0x02157430        0x0 d:/devkitPro/libnds/lib\libnds9.a(initSystem.o)
 .bss           0x02157430        0x8 d:/devkitPro/libnds/lib\libnds9.a(fifosystem.o)
                0x02157434                processing
 .bss           0x02157438        0x0 d:/devkitPro/libnds/lib\libnds9.a(interrupts.o)
 .bss           0x02157438        0x0 d:/devkitPro/libnds/lib\libnds9.a(libnds_exit.o)
 .bss           0x02157438        0x0 d:/devkitPro/libnds/lib\libnds9.a(dcache.o)
 .bss           0x02157438        0x0 d:/devkitPro/libnds/lib\libnds9.a(mpu_setup.o)
 .bss           0x02157438        0x0 d:/devkitPro/libnds/lib\libnds9.a(biosCalls.o)
 .bss           0x02157438        0x0 d:/devkitPro/libnds/lib\libnds9.a(interruptDispatcher.o)
 .bss           0x02157438       0x18 d:/devkitPro/libnds/lib\libmm9.a(mm_comms.o)
 .bss           0x02157450       0x1c d:/devkitPro/libnds/lib\libmm9.a(mm_main9.o)
                0x02157450                mmcbMemory
                0x02157454                mmModuleCount
                0x02157458                mmSampleCount
                0x0215745c                mmMemoryBank
                0x0215745c                mmModuleBank
                0x02157460                mmSampleBank
                0x02157464                mmCallback
                0x02157468                mmActiveStatus
 .bss           0x0215746c        0x0 d:/devkitPro/libnds/lib\libmm9.a(mm_memory.o)
 .bss           0x0215746c       0x44 d:/devkitPro/libnds/lib\libmm9.a(mm_soundbank.o)
 .bss           0x021574b0        0x0 d:/devkitPro/libnds/lib\libmm9.a(mm_flusher.o)
 .bss           0x021574b0        0x0 d:/devkitpro/devkitarm/bin/../lib/gcc/arm-eabi/4.4.2/../../../../arm-eabi/lib/thumb\libstdc++.a(atexit_arm.o)
 .bss           0x021574b0        0x0 d:/devkitpro/devkitarm/bin/../lib/gcc/arm-eabi/4.4.2/thumb\libgcc.a(_udivsi3.o)
 .bss           0x021574b0        0x0 d:/devkitpro/devkitarm/bin/../lib/gcc/arm-eabi/4.4.2/thumb\libgcc.a(_divsi3.o)
 .bss           0x021574b0        0x0 d:/devkitpro/devkitarm/bin/../lib/gcc/arm-eabi/4.4.2/thumb\libgcc.a(_dvmd_tls.o)
 .bss           0x021574b0        0x0 d:/devkitpro/devkitarm/bin/../lib/gcc/arm-eabi/4.4.2/thumb\libgcc.a(_arm_addsubdf3.o)
 .bss           0x021574b0        0x0 d:/devkitpro/devkitarm/bin/../lib/gcc/arm-eabi/4.4.2/thumb\libgcc.a(_arm_muldivdf3.o)
 .bss           0x021574b0        0x0 d:/devkitpro/devkitarm/bin/../lib/gcc/arm-eabi/4.4.2/thumb\libgcc.a(_arm_cmpdf2.o)
 .bss           0x021574b0        0x0 d:/devkitpro/devkitarm/bin/../lib/gcc/arm-eabi/4.4.2/thumb\libgcc.a(_arm_fixdfsi.o)
 .bss           0x021574b0        0x0 d:/devkitpro/devkitarm/bin/../lib/gcc/arm-eabi/4.4.2/thumb\libgcc.a(_arm_addsubsf3.o)
 .bss           0x021574b0        0x0 d:/devkitpro/devkitarm/bin/../lib/gcc/arm-eabi/4.4.2/thumb\libgcc.a(_arm_muldivsf3.o)
 .bss           0x021574b0        0x0 d:/devkitpro/devkitarm/bin/../lib/gcc/arm-eabi/4.4.2/thumb\libgcc.a(_muldi3.o)
 .bss           0x021574b0        0x0 d:/devkitpro/devkitarm/bin/../lib/gcc/arm-eabi/4.4.2/../../../../arm-eabi/lib/thumb\libg.a(lib_a-calloc.o)
 .bss           0x021574b0        0x0 d:/devkitpro/devkitarm/bin/../lib/gcc/arm-eabi/4.4.2/../../../../arm-eabi/lib/thumb\libg.a(lib_a-callocr.o)
 .bss           0x021574b0        0x0 d:/devkitpro/devkitarm/bin/../lib/gcc/arm-eabi/4.4.2/../../../../arm-eabi/lib/thumb\libg.a(lib_a-cxa_atexit.o)
 .bss           0x021574b0        0x0 d:/devkitpro/devkitarm/bin/../lib/gcc/arm-eabi/4.4.2/../../../../arm-eabi/lib/thumb\libg.a(lib_a-fclose.o)
 .bss           0x021574b0        0x0 d:/devkitpro/devkitarm/bin/../lib/gcc/arm-eabi/4.4.2/../../../../arm-eabi/lib/thumb\libg.a(lib_a-fflush.o)
 .bss           0x021574b0        0x0 d:/devkitpro/devkitarm/bin/../lib/gcc/arm-eabi/4.4.2/../../../../arm-eabi/lib/thumb\libg.a(lib_a-findfp.o)
 .bss           0x021574b0        0x0 d:/devkitpro/devkitarm/bin/../lib/gcc/arm-eabi/4.4.2/../../../../arm-eabi/lib/thumb\libg.a(lib_a-fopen.o)
 .bss           0x021574b0        0x0 d:/devkitpro/devkitarm/bin/../lib/gcc/arm-eabi/4.4.2/../../../../arm-eabi/lib/thumb\libg.a(lib_a-fprintf.o)
 .bss           0x021574b0        0x0 d:/devkitpro/devkitarm/bin/../lib/gcc/arm-eabi/4.4.2/../../../../arm-eabi/lib/thumb\libg.a(lib_a-fread.o)
 .bss           0x021574b0        0x0 d:/devkitpro/devkitarm/bin/../lib/gcc/arm-eabi/4.4.2/../../../../arm-eabi/lib/thumb\libg.a(lib_a-freer.o)
 .bss           0x021574b0        0x0 d:/devkitpro/devkitarm/bin/../lib/gcc/arm-eabi/4.4.2/../../../../arm-eabi/lib/thumb\libg.a(lib_a-fseek.o)
 .bss           0x021574b0        0x0 d:/devkitpro/devkitarm/bin/../lib/gcc/arm-eabi/4.4.2/../../../../arm-eabi/lib/thumb\libg.a(lib_a-fwalk.o)
 .bss           0x021574b0        0x0 d:/devkitpro/devkitarm/bin/../lib/gcc/arm-eabi/4.4.2/../../../../arm-eabi/lib/thumb\libg.a(lib_a-gmtime.o)
 .bss           0x021574b0        0x0 d:/devkitpro/devkitarm/bin/../lib/gcc/arm-eabi/4.4.2/../../../../arm-eabi/lib/thumb\libg.a(lib_a-gmtime_r.o)
 .bss           0x021574b0        0x0 d:/devkitpro/devkitarm/bin/../lib/gcc/arm-eabi/4.4.2/../../../../arm-eabi/lib/thumb\libg.a(lib_a-impure.o)
 .bss           0x021574b0        0x0 d:/devkitpro/devkitarm/bin/../lib/gcc/arm-eabi/4.4.2/../../../../arm-eabi/lib/thumb\libg.a(lib_a-init.o)
 .bss           0x021574b0        0xc d:/devkitpro/devkitarm/bin/../lib/gcc/arm-eabi/4.4.2/../../../../arm-eabi/lib/thumb\libg.a(lib_a-locale.o)
                0x021574b0                __nlocale_changed
                0x021574b4                __mlocale_changed
                0x021574b8                _PathLocale
 .bss           0x021574bc        0x0 d:/devkitpro/devkitarm/bin/../lib/gcc/arm-eabi/4.4.2/../../../../arm-eabi/lib/thumb\libg.a(lib_a-makebuf.o)
 .bss           0x021574bc        0x0 d:/devkitpro/devkitarm/bin/../lib/gcc/arm-eabi/4.4.2/../../../../arm-eabi/lib/thumb\libg.a(lib_a-malloc.o)
 .bss           0x021574bc       0x34 d:/devkitpro/devkitarm/bin/../lib/gcc/arm-eabi/4.4.2/../../../../arm-eabi/lib/thumb\libg.a(lib_a-mallocr.o)
                0x021574bc                __malloc_top_pad
                0x021574c0                __malloc_current_mallinfo
                0x021574e8                __malloc_max_sbrked_mem
                0x021574ec                __malloc_max_total_mem
 .bss           0x021574f0        0x0 d:/devkitpro/devkitarm/bin/../lib/gcc/arm-eabi/4.4.2/../../../../arm-eabi/lib/thumb\libg.a(lib_a-memcmp.o)
 .bss           0x021574f0        0x0 d:/devkitpro/devkitarm/bin/../lib/gcc/arm-eabi/4.4.2/../../../../arm-eabi/lib/thumb\libg.a(lib_a-memcpy.o)
 .bss           0x021574f0        0x0 d:/devkitpro/devkitarm/bin/../lib/gcc/arm-eabi/4.4.2/../../../../arm-eabi/lib/thumb\libg.a(lib_a-memset.o)
 .bss           0x021574f0        0x0 d:/devkitpro/devkitarm/bin/../lib/gcc/arm-eabi/4.4.2/../../../../arm-eabi/lib/thumb\libg.a(lib_a-mktm_r.o)
 .bss           0x021574f0        0x0 d:/devkitpro/devkitarm/bin/../lib/gcc/arm-eabi/4.4.2/../../../../arm-eabi/lib/thumb\libg.a(lib_a-mlock.o)
 .bss           0x021574f0        0x0 d:/devkitpro/devkitarm/bin/../lib/gcc/arm-eabi/4.4.2/../../../../arm-eabi/lib/thumb\libg.a(lib_a-realloc.o)
 .bss           0x021574f0        0x0 d:/devkitpro/devkitarm/bin/../lib/gcc/arm-eabi/4.4.2/../../../../arm-eabi/lib/thumb\libg.a(lib_a-reallocr.o)
 .bss           0x021574f0        0x0 d:/devkitpro/devkitarm/bin/../lib/gcc/arm-eabi/4.4.2/../../../../arm-eabi/lib/thumb\libg.a(lib_a-refill.o)
 .bss           0x021574f0        0x0 d:/devkitpro/devkitarm/bin/../lib/gcc/arm-eabi/4.4.2/../../../../arm-eabi/lib/thumb\libg.a(lib_a-sprintf.o)
 .bss           0x021574f0        0x0 d:/devkitpro/devkitarm/bin/../lib/gcc/arm-eabi/4.4.2/../../../../arm-eabi/lib/thumb\libg.a(lib_a-stdio.o)
 .bss           0x021574f0        0x0 d:/devkitpro/devkitarm/bin/../lib/gcc/arm-eabi/4.4.2/../../../../arm-eabi/lib/thumb\libg.a(lib_a-strcasecmp.o)
 .bss           0x021574f0        0x0 d:/devkitpro/devkitarm/bin/../lib/gcc/arm-eabi/4.4.2/../../../../arm-eabi/lib/thumb\libg.a(lib_a-strcat.o)
 .bss           0x021574f0        0x0 d:/devkitpro/devkitarm/bin/../lib/gcc/arm-eabi/4.4.2/../../../../arm-eabi/lib/thumb\libg.a(lib_a-strcmp.o)
 .bss           0x021574f0        0x0 d:/devkitpro/devkitarm/bin/../lib/gcc/arm-eabi/4.4.2/../../../../arm-eabi/lib/thumb\libg.a(lib_a-strcpy.o)
 .bss           0x021574f0        0x0 d:/devkitpro/devkitarm/bin/../lib/gcc/arm-eabi/4.4.2/../../../../arm-eabi/lib/thumb\libg.a(lib_a-strlen.o)
 .bss           0x021574f0        0x0 d:/devkitpro/devkitarm/bin/../lib/gcc/arm-eabi/4.4.2/../../../../arm-eabi/lib/thumb\libg.a(lib_a-svfprintf.o)
 .bss           0x021574f0        0x0 d:/devkitpro/devkitarm/bin/../lib/gcc/arm-eabi/4.4.2/../../../../arm-eabi/lib/thumb\libg.a(lib_a-sysstat.o)
 .bss           0x021574f0        0x0 d:/devkitpro/devkitarm/bin/../lib/gcc/arm-eabi/4.4.2/../../../../arm-eabi/lib/thumb\libg.a(lib_a-time.o)
 .bss           0x021574f0        0x0 d:/devkitpro/devkitarm/bin/../lib/gcc/arm-eabi/4.4.2/../../../../arm-eabi/lib/thumb\libg.a(lib_a-tzlock.o)
 .bss           0x021574f0        0x8 d:/devkitpro/devkitarm/bin/../lib/gcc/arm-eabi/4.4.2/../../../../arm-eabi/lib/thumb\libg.a(lib_a-tzvars.o)
                0x021574f0                _daylight
                0x021574f4                _timezone
 .bss           0x021574f8        0x0 d:/devkitpro/devkitarm/bin/../lib/gcc/arm-eabi/4.4.2/../../../../arm-eabi/lib/thumb\libg.a(lib_a-vfprintf.o)
 .bss           0x021574f8        0x0 d:/devkitpro/devkitarm/bin/../lib/gcc/arm-eabi/4.4.2/../../../../arm-eabi/lib/thumb\libg.a(lib_a-wcrtomb.o)
 .bss           0x021574f8        0x0 d:/devkitpro/devkitarm/bin/../lib/gcc/arm-eabi/4.4.2/../../../../arm-eabi/lib/thumb\libg.a(lib_a-wcsrtombs.o)
 .bss           0x021574f8        0x0 d:/devkitpro/devkitarm/bin/../lib/gcc/arm-eabi/4.4.2/../../../../arm-eabi/lib/thumb\libg.a(lib_a-wctomb_r.o)
 .bss           0x021574f8        0x0 d:/devkitpro/devkitarm/bin/../lib/gcc/arm-eabi/4.4.2/../../../../arm-eabi/lib/thumb\libg.a(lib_a-wsetup.o)
 .bss           0x021574f8        0x0 d:/devkitpro/devkitarm/bin/../lib/gcc/arm-eabi/4.4.2/../../../../arm-eabi/lib/thumb\libg.a(lib_a-__atexit.o)
 .bss           0x021574f8        0x0 d:/devkitpro/devkitarm/bin/../lib/gcc/arm-eabi/4.4.2/../../../../arm-eabi/lib/thumb\libg.a(lib_a-ctype_.o)
 .bss           0x021574f8        0x0 d:/devkitpro/devkitarm/bin/../lib/gcc/arm-eabi/4.4.2/../../../../arm-eabi/lib/thumb\libg.a(lib_a-dtoa.o)
 .bss           0x021574f8        0x0 d:/devkitpro/devkitarm/bin/../lib/gcc/arm-eabi/4.4.2/../../../../arm-eabi/lib/thumb\libg.a(lib_a-flags.o)
 .bss           0x021574f8        0x0 d:/devkitpro/devkitarm/bin/../lib/gcc/arm-eabi/4.4.2/../../../../arm-eabi/lib/thumb\libg.a(lib_a-fvwrite.o)
 .bss           0x021574f8        0x0 d:/devkitpro/devkitarm/bin/../lib/gcc/arm-eabi/4.4.2/../../../../arm-eabi/lib/thumb\libg.a(lib_a-gettzinfo.o)
 .bss           0x021574f8        0x0 d:/devkitpro/devkitarm/bin/../lib/gcc/arm-eabi/4.4.2/../../../../arm-eabi/lib/thumb\libg.a(lib_a-mbtowc_r.o)
 .bss           0x021574f8        0x0 d:/devkitpro/devkitarm/bin/../lib/gcc/arm-eabi/4.4.2/../../../../arm-eabi/lib/thumb\libg.a(lib_a-memchr.o)
 .bss           0x021574f8        0x0 d:/devkitpro/devkitarm/bin/../lib/gcc/arm-eabi/4.4.2/../../../../arm-eabi/lib/thumb\libg.a(lib_a-memmove.o)
 .bss           0x021574f8        0x0 d:/devkitpro/devkitarm/bin/../lib/gcc/arm-eabi/4.4.2/../../../../arm-eabi/lib/thumb\libg.a(lib_a-mprec.o)
 .bss           0x021574f8        0x0 d:/devkitpro/devkitarm/bin/../lib/gcc/arm-eabi/4.4.2/../../../../arm-eabi/lib/thumb\libg.a(lib_a-s_isinfd.o)
 .bss           0x021574f8        0x0 d:/devkitpro/devkitarm/bin/../lib/gcc/arm-eabi/4.4.2/../../../../arm-eabi/lib/thumb\libg.a(lib_a-s_isnand.o)
 .bss           0x021574f8        0x0 d:/devkitpro/devkitarm/bin/../lib/gcc/arm-eabi/4.4.2/../../../../arm-eabi/lib/thumb\libsysbase.a(close.o)
 .bss           0x021574f8        0x0 d:/devkitpro/devkitarm/bin/../lib/gcc/arm-eabi/4.4.2/../../../../arm-eabi/lib/thumb\libsysbase.a(fstat.o)
 .bss           0x021574f8        0x0 d:/devkitpro/devkitarm/bin/../lib/gcc/arm-eabi/4.4.2/../../../../arm-eabi/lib/thumb\libsysbase.a(isatty.o)
 .bss           0x021574f8        0x0 d:/devkitpro/devkitarm/bin/../lib/gcc/arm-eabi/4.4.2/../../../../arm-eabi/lib/thumb\libsysbase.a(lseek.o)
 .bss           0x021574f8        0x0 d:/devkitpro/devkitarm/bin/../lib/gcc/arm-eabi/4.4.2/../../../../arm-eabi/lib/thumb\libsysbase.a(open.o)
 .bss           0x021574f8        0x0 d:/devkitpro/devkitarm/bin/../lib/gcc/arm-eabi/4.4.2/../../../../arm-eabi/lib/thumb\libsysbase.a(read.o)
 .bss           0x021574f8        0x4 d:/devkitpro/devkitarm/bin/../lib/gcc/arm-eabi/4.4.2/../../../../arm-eabi/lib/thumb\libsysbase.a(sbrk.o)
 .bss           0x021574fc        0x0 d:/devkitpro/devkitarm/bin/../lib/gcc/arm-eabi/4.4.2/../../../../arm-eabi/lib/thumb\libsysbase.a(stat.o)
 .bss           0x021574fc        0x0 d:/devkitpro/devkitarm/bin/../lib/gcc/arm-eabi/4.4.2/../../../../arm-eabi/lib/thumb\libsysbase.a(times.o)
 .bss           0x021574fc        0x0 d:/devkitpro/devkitarm/bin/../lib/gcc/arm-eabi/4.4.2/../../../../arm-eabi/lib/thumb\libsysbase.a(write.o)
 .bss           0x021574fc        0x8 d:/devkitpro/devkitarm/bin/../lib/gcc/arm-eabi/4.4.2/../../../../arm-eabi/lib/thumb\libsysbase.a(malloc_vars.o)
                0x021574fc                fake_heap_end
                0x02157500                fake_heap_start
 .bss           0x02157504        0x0 d:/devkitpro/devkitarm/bin/../lib/gcc/arm-eabi/4.4.2/../../../../arm-eabi/lib/thumb\libsysbase.a(build_argv.o)
 .bss           0x02157504     0x1000 d:/devkitpro/devkitarm/bin/../lib/gcc/arm-eabi/4.4.2/../../../../arm-eabi/lib/thumb\libsysbase.a(handle_manager.o)
 .bss           0x02158504        0x0 d:/devkitpro/devkitarm/bin/../lib/gcc/arm-eabi/4.4.2/../../../../arm-eabi/lib/thumb\libsysbase.a(dirent.o)
 .bss           0x02158504        0x0 d:/devkitpro/devkitarm/bin/../lib/gcc/arm-eabi/4.4.2/../../../../arm-eabi/lib/thumb\libsysbase.a(iosupport.o)
 .bss           0x02158504        0x0 d:/devkitpro/devkitarm/bin/../lib/gcc/arm-eabi/4.4.2/../../../../arm-eabi/lib/thumb\libsysbase.a(dir.o)
 .bss           0x02158504        0x0 d:/devkitpro/devkitarm/bin/../lib/gcc/arm-eabi/4.4.2/../../../../arm-eabi/lib/thumb\libg.a(lib_a-errno.o)
 .bss           0x02158504        0x0 d:/devkitpro/devkitarm/bin/../lib/gcc/arm-eabi/4.4.2/../../../../arm-eabi/lib/thumb\libg.a(lib_a-strchr.o)
 .bss           0x02158504        0x0 d:/devkitpro/devkitarm/bin/../lib/gcc/arm-eabi/4.4.2/../../../../arm-eabi/lib/thumb\libg.a(lib_a-strncmp.o)
 .bss           0x02158504        0x0 d:/devkitpro/devkitarm/bin/../lib/gcc/arm-eabi/4.4.2/../../../../arm-eabi/lib/thumb\libg.a(lib_a-strncpy.o)
 .bss           0x02158504        0x0 d:/devkitpro/devkitarm/bin/../lib/gcc/arm-eabi/4.4.2/../../../../arm-eabi/lib/thumb\libg.a(lib_a-strnlen.o)
 .bss           0x02158504        0x0 d:/devkitpro/devkitarm/bin/../lib/gcc/arm-eabi/4.4.2/thumb/crtend.o
 .bss           0x02158504        0x0 d:/devkitpro/devkitarm/bin/../lib/gcc/arm-eabi/4.4.2/thumb/crtn.o
 *(COMMON)
 COMMON         0x02158504      0x22c d:/devkitPro/PAlib/lib\libpa9.a(PA.o)
                0x02158504                PA_ScreenSpace
                0x02158508                PadPointer
                0x0215850c                pa_checklid
                0x02158510                PA_IPC
                0x021586a8                Pad
                0x021586d0                Stylus
                0x021586ec                PA_bgmap
                0x0215870c                PA_GifInfo
                0x02158720                PA_MovedSprite
 COMMON         0x02158730      0x3d0 d:/devkitPro/PAlib/lib\libpa9.a(PA_BgTiles.o)
                0x02158730                PA_parallaxY
                0x02158750                PA_parallaxX
                0x02158770                tempsize
                0x02158774                charblocks
                0x02158800                PA_BgInfo
                0x02158a20                scrollpos
 COMMON         0x02158b00      0x226 d:/devkitPro/PAlib/lib\libpa9.a(PA_Draw.o)
                0x02158b00                PA_olddowntime
                0x02158b04                PA_DrawBg32
                0x02158b0c                PA_DrawBg
                0x02158b14                PA_oldx
                0x02158b18                PA_drawsize
                0x02158b1c                PA_oldy
                0x02158b20                tempvar
                0x02158b24                PA_temppal
                0x02158d24                PA_nBit
 *fill*         0x02158d26        0x2 00
 COMMON         0x02158d28        0x2 d:/devkitPro/PAlib/lib\libpa9.a(PA_Draw8bit.o)
                0x02158d28                pa8bitbuffer
 *fill*         0x02158d2a        0x2 00
 COMMON         0x02158d2c      0x815 d:/devkitPro/PAlib/lib\libpa9.a(PA_Gif.o)
                0x02158d2c                temppalette
                0x02158d30                gifheight
                0x02158d32                gifwidth
                0x02158d34                LineBuf
                0x02159534                gifinfo
                0x02159538                m
                0x0215953c                tempscreen
                0x02159540                GifBits
 *fill*         0x02159541        0x3 00
 COMMON         0x02159544       0x50 d:/devkitPro/PAlib/lib\libpa9.a(PA_Interrupt.o)
                0x02159544                PA_VBLCounter
                0x02159584                PA_VBLCounterOn
 COMMON         0x02159594        0x1 d:/devkitPro/PAlib/lib\libpa9.a(PA_Keys.o)
                0x02159594                _PA_LidDown
 *fill*         0x02159595        0x3 00
 COMMON         0x02159598        0x4 d:/devkitPro/PAlib/lib\libpa9.a(PA_Palette.o)
                0x02159598                PA_ExtPal
 COMMON         0x0215959c       0x5a d:/devkitPro/PAlib/lib\libpa9.a(PA_RTC.o)
                0x0215959c                PA_RTC
                0x021595a4                PA_UserInfo
 *fill*         0x021595f6        0x2 00
 COMMON         0x021595f8     0xa9bc d:/devkitPro/PAlib/lib\libpa9.a(PA_Reco.o)
                0x021595f8                PA_Reco
                0x02159604                PA_RecoInfo
                0x0215961c                PA_StylusPos
                0x0216325c                PA_CustomShape
                0x02163fa4                PA_RecoShape
 COMMON         0x02163fb4     0x8104 d:/devkitPro/PAlib/lib\libpa9.a(PA_Sprite.o)
                0x02163fb4                free_mem
                0x02165fb4                n_free_mem
                0x02165fb8                PA_SpritePrio
                0x021660b8                used_mem
                0x021668b8                spriteanims
                0x02168cb8                PA_SpriteAnimP
                0x0216acb8                PA_first
                0x0216aeb8                PA_next
                0x0216afb8                obj_per_gfx
                0x0216b7b8                PA_obj
                0x0216bfb8                DualSpriteX
 COMMON         0x0216c0b8       0x3c d:/devkitPro/PAlib/lib\libpa9.a(PA_Text.o)
                0x0216c0b8                PA_texttiles
                0x0216c0c0                PA_TextBox
                0x0216c0c8                PAbgtext
                0x0216c0cc                pa_printx
                0x0216c0d4                pa_printy
                0x0216c0dc                textcol
                0x0216c0e0                pa_printscroll
                0x0216c0e4                PA_textpal
                0x0216c0ec                PA_textmap
 COMMON         0x0216c0f4     0x301a d:/devkitPro/PAlib/lib\libpa9.a(PA_TextBits.o)
                0x0216c0f4                PA_LetterPos
                0x0216f0f8                pa_bittextpoliceheight
                0x0216f104                pa_bittextsizes
 *fill*         0x0216f10e        0x2 00
 COMMON         0x0216f110       0x10 d:/devkitPro/PAlib/lib\libpa9.a(PA_16c.o)
                0x0216f110                PA_Draw16
                0x0216f118                PA_Draw1632
 COMMON         0x0216f120        0x8 d:/devkitPro/PAlib/lib\libpa9.a(PA_BgRot.o)
                0x0216f120                rotbg_size
 COMMON         0x0216f128       0x12 d:/devkitPro/PAlib/lib\libpa9.a(PA_Keyboard.o)
                0x0216f128                PA_Keyboard_Struct
 *fill*         0x0216f13a        0x2 00
 COMMON         0x0216f13c        0x4 d:/devkitPro/libnds/lib\libnds9.a(initSystem.o)
                0x0216f13c                theTime
 COMMON         0x0216f140      0xa40 d:/devkitPro/libnds/lib\libnds9.a(fifosystem.o)
                0x0216f140                fifo_datamsg_data
                0x0216f180                fifo_buffer
                0x0216f980                fifo_value32_func
                0x0216f9c0                fifo_address_func
                0x0216fa00                fifo_value32_data
                0x0216fa40                fifo_value32_queue
                0x0216fa80                fifo_data_queue
                0x0216fac0                fifo_address_data
                0x0216fb00                fifo_datamsg_func
                0x0216fb40                fifo_address_queue
 COMMON         0x0216fb80        0x4 d:/devkitpro/devkitarm/bin/../lib/gcc/arm-eabi/4.4.2/../../../../arm-eabi/lib/thumb\libsysbase.a(times.o)
                0x0216fb80                punixTime
                0x0216fb84                . = ALIGN (0x4)
                0x0216fb84                __bss_end = ABSOLUTE (.)
                0x0216fb84                __bss_end__ = __bss_end
                0x0216fb84                _end = __bss_end__
                0x0216fb84                __end__ = __bss_end__

.stab
 *(.stab)

.stabstr
 *(.stabstr)

.stab.excl
 *(.stab.excl)

.stab.exclstr
 *(.stab.exclstr)

.stab.index
 *(.stab.index)

.stab.indexstr
 *(.stab.indexstr)

.ARM.attributes
                0x00000000       0x2d load address 0x021573c4
 .ARM.attributes
                0x00000000       0x21 d:/devkitpro/devkitarm/bin/../lib/gcc/arm-eabi/4.4.2/../../../../arm-eabi/lib/thumb/ds_arm9_crt0.o
 .ARM.attributes
                0x00000021       0x20 d:/devkitpro/devkitarm/bin/../lib/gcc/arm-eabi/4.4.2/thumb/crti.o
 .ARM.attributes
                0x00000041       0x30 d:/devkitpro/devkitarm/bin/../lib/gcc/arm-eabi/4.4.2/thumb/crtbegin.o
 .ARM.attributes
                0x00000071       0x14 bg_bang_Map.o
 .ARM.attributes
                0x00000085       0x14 bg_bang_Pal.o
 .ARM.attributes
                0x00000099       0x14 bg_bang_Tiles.o
 .ARM.attributes
                0x000000ad       0x14 bg_boom_Map.o
 .ARM.attributes
                0x000000c1       0x14 bg_boom_Pal.o
 .ARM.attributes
                0x000000d5       0x14 bg_boom_Tiles.o
 .ARM.attributes
                0x000000e9       0x14 bg_desks_Map.o
 .ARM.attributes
                0x000000fd       0x14 bg_desks_Pal.o
 .ARM.attributes
                0x00000111       0x14 bg_desks_Tiles.o
 .ARM.attributes
                0x00000125       0x14 bg_doors_Map.o
 .ARM.attributes
                0x00000139       0x14 bg_doors_Pal.o
 .ARM.attributes
                0x0000014d       0x14 bg_doors_Tiles.o
 .ARM.attributes
                0x00000161       0x14 bg_duelStage_Map.o
 .ARM.attributes
                0x00000175       0x14 bg_duelStage_Pal.o
 .ARM.attributes
                0x00000189       0x14 bg_duelStage_Tiles.o
 .ARM.attributes
                0x0000019d       0x14 bg_intro_Map.o
 .ARM.attributes
                0x000001b1       0x14 bg_intro_Pal.o
 .ARM.attributes
                0x000001c5       0x14 bg_intro_Tiles.o
 .ARM.attributes
                0x000001d9       0x14 bg_mainMenu_Map.o
 .ARM.attributes
                0x000001ed       0x14 bg_mainMenu_Pal.o
 .ARM.attributes
                0x00000201       0x14 bg_mainMenu_Tiles.o
 .ARM.attributes
                0x00000215       0x14 bg_mainStage_Map.o
 .ARM.attributes
                0x00000229       0x14 bg_mainStage_Pal.o
 .ARM.attributes
                0x0000023d       0x14 bg_mainStage_Tiles.o
 .ARM.attributes
                0x00000251       0x14 mainFont_Map.o
 .ARM.attributes
                0x00000265       0x14 mainFont_Pal.o
 .ARM.attributes
                0x00000279       0x14 mainFont_Tiles.o
 .ARM.attributes
                0x0000028d       0x14 sp_BigDollar_Pal.o
 .ARM.attributes
                0x000002a1       0x14 sp_BigDollar_Sprite.o
 .ARM.attributes
                0x000002b5       0x14 sp_bandit1_1a_Sprite.o
 .ARM.attributes
                0x000002c9       0x14 sp_bandit1_1b_Sprite.o
 .ARM.attributes
                0x000002dd       0x14 sp_bandit1_Pal.o
 .ARM.attributes
                0x000002f1       0x14 sp_bandit1_die_Pal.o
 .ARM.attributes
                0x00000305       0x14 sp_bandit1_die_bot_Sprite.o
 .ARM.attributes
                0x00000319       0x14 sp_bandit1_die_top_Sprite.o
 .ARM.attributes
                0x0000032d       0x14 sp_bandit_duel1_Pal.o
 .ARM.attributes
                0x00000341       0x14 sp_bandit_duel1_a_Sprite.o
 .ARM.attributes
                0x00000355       0x14 sp_bandit_duel1_b_Sprite.o
 .ARM.attributes
                0x00000369       0x14 sp_bandit_duel1_background_Sprite.o
 .ARM.attributes
                0x0000037d       0x14 sp_bandit_duel1_c_Sprite.o
 .ARM.attributes
                0x00000391       0x14 sp_bandit_duel1_dying_Sprite.o
 .ARM.attributes
                0x000003a5       0x14 sp_bandit_duel2_Pal.o
 .ARM.attributes
                0x000003b9       0x14 sp_bandit_duel2_a_Sprite.o
 .ARM.attributes
                0x000003cd       0x14 sp_bandit_duel2_b_Sprite.o
 .ARM.attributes
                0x000003e1       0x14 sp_bandit_duel2_background_Sprite.o
 .ARM.attributes
                0x000003f5       0x14 sp_bandit_duel2_c_Sprite.o
 .ARM.attributes
                0x00000409       0x14 sp_bandit_duel2_dying_Sprite.o
 .ARM.attributes
                0x0000041d       0x14 sp_bandit_duel3_Pal.o
 .ARM.attributes
                0x00000431       0x14 sp_bandit_duel3_a_Sprite.o
 .ARM.attributes
                0x00000445       0x14 sp_bandit_duel3_b_Sprite.o
 .ARM.attributes
                0x00000459       0x14 sp_bandit_duel3_background_Sprite.o
 .ARM.attributes
                0x0000046d       0x14 sp_bandit_duel3_c_Sprite.o
 .ARM.attributes
                0x00000481       0x14 sp_bandit_duel3_dying_Sprite.o
 .ARM.attributes
                0x00000495       0x14 sp_dolar_Sprite.o
 .ARM.attributes
                0x000004a9       0x14 sp_dollar_Pal.o
 .ARM.attributes
                0x000004bd       0x14 sp_doorsClose_bot_Sprite.o
 .ARM.attributes
                0x000004d1       0x14 sp_doorsClose_top_Sprite.o
 .ARM.attributes
                0x000004e5       0x14 sp_doorsOpen_bot_Sprite.o
 .ARM.attributes
                0x000004f9       0x14 sp_doorsOpen_top_Sprite.o
 .ARM.attributes
                0x0000050d       0x14 sp_doors_Pal.o
 .ARM.attributes
                0x00000521       0x14 sp_hatman_Pal.o
 .ARM.attributes
                0x00000535       0x14 sp_hatman_bot_Sprite.o
 .ARM.attributes
                0x00000549       0x14 sp_hatman_top_Sprite.o
 .ARM.attributes
                0x0000055d       0x14 sp_life_Pal.o
 .ARM.attributes
                0x00000571       0x14 sp_life_Sprite.o
 .ARM.attributes
                0x00000585       0x14 sp_man_1a_Sprite.o
 .ARM.attributes
                0x00000599       0x14 sp_man_1b_Sprite.o
 .ARM.attributes
                0x000005ad       0x14 sp_man_Pal.o
 .ARM.attributes
                0x000005c1       0x14 sp_man_die_Pal.o
 .ARM.attributes
                0x000005d5       0x14 sp_man_dying_bot_Sprite.o
 .ARM.attributes
                0x000005e9       0x14 sp_man_dying_top_Sprite.o
 .ARM.attributes
                0x000005fd       0x14 sp_menuStart_Pal.o
 .ARM.attributes
                0x00000611       0x14 sp_menu_credits_1_Sprite.o
 .ARM.attributes
                0x00000625       0x14 sp_menu_credits_2_Sprite.o
 .ARM.attributes
                0x00000639       0x14 sp_menu_hiscores_1_Sprite.o
 .ARM.attributes
                0x0000064d       0x14 sp_menu_hiscores_2_Sprite.o
 .ARM.attributes
                0x00000661       0x14 sp_menu_hiscores_3_Sprite.o
 .ARM.attributes
                0x00000675       0x14 sp_menu_start_1_Sprite.o
 .ARM.attributes
                0x00000689       0x14 sp_menu_start_2_Sprite.o
 .ARM.attributes
                0x0000069d       0x14 sp_menu_start_3_Sprite.o
 .ARM.attributes
                0x000006b1       0x14 sp_redBar_1_Sprite.o
 .ARM.attributes
                0x000006c5       0x14 sp_redBar_2_Sprite.o
 .ARM.attributes
                0x000006d9       0x14 sp_redBar_Pal.o
 .ARM.attributes
                0x000006ed       0x14 sp_shoot_Sprite.o
 .ARM.attributes
                0x00000701       0x14 sp_woman_1a_Sprite.o
 .ARM.attributes
                0x00000715       0x14 sp_woman_1b_Sprite.o
 .ARM.attributes
                0x00000729       0x14 sp_woman_Pal.o
 .ARM.attributes
                0x0000073d       0x14 sp_woman_die_Pal.o
 .ARM.attributes
                0x00000751       0x14 sp_woman_dying_bot_Sprite.o
 .ARM.attributes
                0x00000765       0x14 sp_woman_dying_top_Sprite.o
 .ARM.attributes
                0x00000779       0x14 soundbank_bin.o
 .ARM.attributes
                0x0000078d       0x14 bg_Splash_developedBy_1.o
 .ARM.attributes
                0x000007a1       0x14 bg_Splash_developedBy_2.o
 .ARM.attributes
                0x000007b5       0x14 bg_palib_1.o
 .ARM.attributes
                0x000007c9       0x14 bg_palib_2.o
 .ARM.attributes
                0x000007dd       0x14 logo.o
 .ARM.attributes
                0x000007f1       0x14 logo_wifi.o
 .ARM.attributes
                0x00000805       0x27 utils.o
 .ARM.attributes
                0x0000082c       0x27 bg_bang.o
 .ARM.attributes
                0x00000853       0x27 bg_boom.o
 .ARM.attributes
                0x0000087a       0x27 bg_desks.o
 .ARM.attributes
                0x000008a1       0x27 bg_doors.o
 .ARM.attributes
                0x000008c8       0x27 bg_duelStage.o
 .ARM.attributes
                0x000008ef       0x27 bg_intro.o
 .ARM.attributes
                0x00000916       0x27 bg_mainMenu.o
 .ARM.attributes
                0x0000093d       0x27 bg_mainStage.o
 .ARM.attributes
                0x00000964       0x27 mainFont.o
 .ARM.attributes
                0x0000098b       0x27 AnimationManager.o
 .ARM.attributes
                0x000009b2       0x27 ConfigPerson.o
 .ARM.attributes
                0x000009d9       0x27 Door.o
 .ARM.attributes
                0x00000a00       0x27 DuelStage.o
 .ARM.attributes
                0x00000a27       0x27 Game.o
 .ARM.attributes
                0x00000a4e       0x27 LevelManager.o
 .ARM.attributes
                0x00000a75       0x27 MainStage.o
 .ARM.attributes
                0x00000a9c       0x27 TextManager.o
 .ARM.attributes
                0x00000ac3       0x27 UIManager.o
 .ARM.attributes
                0x00000aea       0x27 main.o
 .ARM.attributes
                0x00000b11       0x27 d:/devkitPro/PAlib/lib\libpa9.a(PA.o)
 .ARM.attributes
                0x00000b38       0x27 d:/devkitPro/PAlib/lib\libpa9.a(PA_BgEasy.o)
 .ARM.attributes
                0x00000b5f       0x27 d:/devkitPro/PAlib/lib\libpa9.a(PA_BgLargeMap.o)
 .ARM.attributes
                0x00000b86       0x27 d:/devkitPro/PAlib/lib\libpa9.a(PA_BgTiles.o)
 .ARM.attributes
                0x00000bad       0x27 d:/devkitPro/PAlib/lib\libpa9.a(PA_Draw.o)
 .ARM.attributes
                0x00000bd4       0x27 d:/devkitPro/PAlib/lib\libpa9.a(PA_Draw8bit.o)
 .ARM.attributes
                0x00000bfb       0x27 d:/devkitPro/PAlib/lib\libpa9.a(PA_Error.o)
 .ARM.attributes
                0x00000c22       0x27 d:/devkitPro/PAlib/lib\libpa9.a(PA_Gif.o)
 .ARM.attributes
                0x00000c49       0x27 d:/devkitPro/PAlib/lib\libpa9.a(PA_Inits.o)
 .ARM.attributes
                0x00000c70       0x27 d:/devkitPro/PAlib/lib\libpa9.a(PA_Interrupt.o)
 .ARM.attributes
                0x00000c97       0x27 d:/devkitPro/PAlib/lib\libpa9.a(PA_Keys.o)
 .ARM.attributes
                0x00000cbe       0x27 d:/devkitPro/PAlib/lib\libpa9.a(PA_Math.o)
 .ARM.attributes
                0x00000ce5       0x27 d:/devkitPro/PAlib/lib\libpa9.a(PA_NewBg.o)
 .ARM.attributes
                0x00000d0c       0x27 d:/devkitPro/PAlib/lib\libpa9.a(PA_Palette.o)
 .ARM.attributes
                0x00000d33       0x27 d:/devkitPro/PAlib/lib\libpa9.a(PA_RTC.o)
 .ARM.attributes
                0x00000d5a       0x27 d:/devkitPro/PAlib/lib\libpa9.a(PA_Reco.o)
 .ARM.attributes
                0x00000d81       0x27 d:/devkitPro/PAlib/lib\libpa9.a(PA_Sprite.o)
 .ARM.attributes
                0x00000da8       0x27 d:/devkitPro/PAlib/lib\libpa9.a(PA_SpriteAnim.o)
 .ARM.attributes
                0x00000dcf       0x27 d:/devkitPro/PAlib/lib\libpa9.a(PA_Stuff.o)
 .ARM.attributes
                0x00000df6       0x27 d:/devkitPro/PAlib/lib\libpa9.a(PA_Text.o)
 .ARM.attributes
                0x00000e1d       0x27 d:/devkitPro/PAlib/lib\libpa9.a(PA_Text8bit.o)
 .ARM.attributes
                0x00000e44       0x27 d:/devkitPro/PAlib/lib\libpa9.a(PA_TextBits.o)
 .ARM.attributes
                0x00000e6b       0x27 d:/devkitPro/PAlib/lib\libpa9.a(dgif_lib.o)
 .ARM.attributes
                0x00000e92       0x27 d:/devkitPro/PAlib/lib\libpa9.a(gif_err.o)
 .ARM.attributes
                0x00000eb9       0x27 d:/devkitPro/PAlib/lib\libpa9.a(gifalloc.o)
 .ARM.attributes
                0x00000ee0       0x27 d:/devkitPro/PAlib/lib\libpa9.a(PA_TiledFont.o)
 .ARM.attributes
                0x00000f07       0x27 d:/devkitPro/PAlib/lib\libpa9.a(PA_BmpFont0.o)
 .ARM.attributes
                0x00000f2e       0x27 d:/devkitPro/PAlib/lib\libpa9.a(PA_BmpFont1.o)
 .ARM.attributes
                0x00000f55       0x27 d:/devkitPro/PAlib/lib\libpa9.a(PA_BmpFont2.o)
 .ARM.attributes
                0x00000f7c       0x27 d:/devkitPro/PAlib/lib\libpa9.a(PA_BmpFont3.o)
 .ARM.attributes
                0x00000fa3       0x27 d:/devkitPro/PAlib/lib\libpa9.a(PA_BmpFont4.o)
 .ARM.attributes
                0x00000fca       0x14 d:/devkitPro/PAlib/lib\libpa9.a(PA_TiledFont_Map.bin.o)
 .ARM.attributes
                0x00000fde       0x14 d:/devkitPro/PAlib/lib\libpa9.a(PA_TiledFont_Pal.bin.o)
 .ARM.attributes
                0x00000ff2       0x14 d:/devkitPro/PAlib/lib\libpa9.a(PA_TiledFont_Tiles.bin.o)
 .ARM.attributes
                0x00001006       0x14 d:/devkitPro/PAlib/lib\libpa9.a(PA_BmpFont0_Map.bin.o)
 .ARM.attributes
                0x0000101a       0x14 d:/devkitPro/PAlib/lib\libpa9.a(PA_BmpFont0_Sizes.bin.o)
 .ARM.attributes
                0x0000102e       0x14 d:/devkitPro/PAlib/lib\libpa9.a(PA_BmpFont0_Tiles.bin.o)
 .ARM.attributes
                0x00001042       0x14 d:/devkitPro/PAlib/lib\libpa9.a(PA_BmpFont1_Map.bin.o)
 .ARM.attributes
                0x00001056       0x14 d:/devkitPro/PAlib/lib\libpa9.a(PA_BmpFont1_Sizes.bin.o)
 .ARM.attributes
                0x0000106a       0x14 d:/devkitPro/PAlib/lib\libpa9.a(PA_BmpFont1_Tiles.bin.o)
 .ARM.attributes
                0x0000107e       0x14 d:/devkitPro/PAlib/lib\libpa9.a(PA_BmpFont2_Map.bin.o)
 .ARM.attributes
                0x00001092       0x14 d:/devkitPro/PAlib/lib\libpa9.a(PA_BmpFont2_Sizes.bin.o)
 .ARM.attributes
                0x000010a6       0x14 d:/devkitPro/PAlib/lib\libpa9.a(PA_BmpFont2_Tiles.bin.o)
 .ARM.attributes
                0x000010ba       0x14 d:/devkitPro/PAlib/lib\libpa9.a(PA_BmpFont3_Map.bin.o)
 .ARM.attributes
                0x000010ce       0x14 d:/devkitPro/PAlib/lib\libpa9.a(PA_BmpFont3_Sizes.bin.o)
 .ARM.attributes
                0x000010e2       0x14 d:/devkitPro/PAlib/lib\libpa9.a(PA_BmpFont3_Tiles.bin.o)
 .ARM.attributes
                0x000010f6       0x14 d:/devkitPro/PAlib/lib\libpa9.a(PA_BmpFont4_Map.bin.o)
 .ARM.attributes
                0x0000110a       0x14 d:/devkitPro/PAlib/lib\libpa9.a(PA_BmpFont4_Sizes.bin.o)
 .ARM.attributes
                0x0000111e       0x14 d:/devkitPro/PAlib/lib\libpa9.a(PA_BmpFont4_Tiles.bin.o)
 .ARM.attributes
                0x00001132       0x27 d:/devkitPro/PAlib/lib\libpa9.a(PA_16c.o)
 .ARM.attributes
                0x00001159       0x27 d:/devkitPro/PAlib/lib\libpa9.a(PA_BgRot.o)
 .ARM.attributes
                0x00001180       0x27 d:/devkitPro/PAlib/lib\libpa9.a(PA_Fifo.o)
 .ARM.attributes
                0x000011a7       0x27 d:/devkitPro/PAlib/lib\libpa9.a(PA_Keyboard.o)
 .ARM.attributes
                0x000011ce       0x27 d:/devkitPro/PAlib/lib\libpa9.a(PA_PaletteEx.o)
 .ARM.attributes
                0x000011f5       0x27 d:/devkitPro/PAlib/lib\libpa9.a(keyboard.map.o)
 .ARM.attributes
                0x0000121c       0x27 d:/devkitPro/PAlib/lib\libpa9.a(keyboard.pal.o)
 .ARM.attributes
                0x00001243       0x27 d:/devkitPro/PAlib/lib\libpa9.a(keyboard.raw.o)
 .ARM.attributes
                0x0000126a       0x27 d:/devkitPro/libnds/lib\libnds9.a(keys.o)
 .ARM.attributes
                0x00001291       0x27 d:/devkitPro/libnds/lib\libnds9.a(system.o)
 .ARM.attributes
                0x000012b8       0x27 d:/devkitPro/libnds/lib\libnds9.a(touch.o)
 .ARM.attributes
                0x000012df       0x27 d:/devkitPro/libnds/lib\libnds9.a(video.o)
 .ARM.attributes
                0x00001306       0x27 d:/devkitPro/libnds/lib\libnds9.a(initSystem.o)
 .ARM.attributes
                0x0000132d       0x27 d:/devkitPro/libnds/lib\libnds9.a(fifosystem.o)
 .ARM.attributes
                0x00001354       0x27 d:/devkitPro/libnds/lib\libnds9.a(interrupts.o)
 .ARM.attributes
                0x0000137b       0x27 d:/devkitPro/libnds/lib\libnds9.a(libnds_exit.o)
 .ARM.attributes
                0x000013a2       0x1b d:/devkitPro/libnds/lib\libnds9.a(dcache.o)
 .ARM.attributes
                0x000013bd       0x21 d:/devkitPro/libnds/lib\libnds9.a(mpu_setup.o)
 .ARM.attributes
                0x000013de       0x1b d:/devkitPro/libnds/lib\libnds9.a(biosCalls.o)
 .ARM.attributes
                0x000013f9       0x1b d:/devkitPro/libnds/lib\libnds9.a(interruptDispatcher.o)
 .ARM.attributes
                0x00001414       0x19 d:/devkitPro/libnds/lib\libmm9.a(mm_comms.o)
 .ARM.attributes
                0x0000142d       0x1b d:/devkitPro/libnds/lib\libmm9.a(mm_main9.o)
 .ARM.attributes
                0x00001448       0x19 d:/devkitPro/libnds/lib\libmm9.a(mm_memory.o)
 .ARM.attributes
                0x00001461       0x19 d:/devkitPro/libnds/lib\libmm9.a(mm_soundbank.o)
 .ARM.attributes
                0x0000147a       0x1b d:/devkitPro/libnds/lib\libmm9.a(mm_flusher.o)
 .ARM.attributes
                0x00001495       0x30 d:/devkitpro/devkitarm/bin/../lib/gcc/arm-eabi/4.4.2/../../../../arm-eabi/lib/thumb\libstdc++.a(atexit_arm.o)
 .ARM.attributes
                0x000014c5       0x20 d:/devkitpro/devkitarm/bin/../lib/gcc/arm-eabi/4.4.2/thumb\libgcc.a(_udivsi3.o)
 .ARM.attributes
                0x000014e5       0x20 d:/devkitpro/devkitarm/bin/../lib/gcc/arm-eabi/4.4.2/thumb\libgcc.a(_divsi3.o)
 .ARM.attributes
                0x00001505       0x20 d:/devkitpro/devkitarm/bin/../lib/gcc/arm-eabi/4.4.2/thumb\libgcc.a(_dvmd_tls.o)
 .ARM.attributes
                0x00001525       0x20 d:/devkitpro/devkitarm/bin/../lib/gcc/arm-eabi/4.4.2/thumb\libgcc.a(_arm_addsubdf3.o)
 .ARM.attributes
                0x00001545       0x20 d:/devkitpro/devkitarm/bin/../lib/gcc/arm-eabi/4.4.2/thumb\libgcc.a(_arm_muldivdf3.o)
 .ARM.attributes
                0x00001565       0x20 d:/devkitpro/devkitarm/bin/../lib/gcc/arm-eabi/4.4.2/thumb\libgcc.a(_arm_cmpdf2.o)
 .ARM.attributes
                0x00001585       0x20 d:/devkitpro/devkitarm/bin/../lib/gcc/arm-eabi/4.4.2/thumb\libgcc.a(_arm_fixdfsi.o)
 .ARM.attributes
                0x000015a5       0x20 d:/devkitpro/devkitarm/bin/../lib/gcc/arm-eabi/4.4.2/thumb\libgcc.a(_arm_addsubsf3.o)
 .ARM.attributes
                0x000015c5       0x20 d:/devkitpro/devkitarm/bin/../lib/gcc/arm-eabi/4.4.2/thumb\libgcc.a(_arm_muldivsf3.o)
 .ARM.attributes
                0x000015e5       0x30 d:/devkitpro/devkitarm/bin/../lib/gcc/arm-eabi/4.4.2/thumb\libgcc.a(_muldi3.o)
 .ARM.attributes
                0x00001615       0x30 d:/devkitpro/devkitarm/bin/../lib/gcc/arm-eabi/4.4.2/../../../../arm-eabi/lib/thumb\libg.a(lib_a-calloc.o)
 .ARM.attributes
                0x00001645       0x30 d:/devkitpro/devkitarm/bin/../lib/gcc/arm-eabi/4.4.2/../../../../arm-eabi/lib/thumb\libg.a(lib_a-callocr.o)
 .ARM.attributes
                0x00001675       0x30 d:/devkitpro/devkitarm/bin/../lib/gcc/arm-eabi/4.4.2/../../../../arm-eabi/lib/thumb\libg.a(lib_a-cxa_atexit.o)
 .ARM.attributes
                0x000016a5       0x30 d:/devkitpro/devkitarm/bin/../lib/gcc/arm-eabi/4.4.2/../../../../arm-eabi/lib/thumb\libg.a(lib_a-fclose.o)
 .ARM.attributes
                0x000016d5       0x30 d:/devkitpro/devkitarm/bin/../lib/gcc/arm-eabi/4.4.2/../../../../arm-eabi/lib/thumb\libg.a(lib_a-fflush.o)
 .ARM.attributes
                0x00001705       0x30 d:/devkitpro/devkitarm/bin/../lib/gcc/arm-eabi/4.4.2/../../../../arm-eabi/lib/thumb\libg.a(lib_a-findfp.o)
 .ARM.attributes
                0x00001735       0x30 d:/devkitpro/devkitarm/bin/../lib/gcc/arm-eabi/4.4.2/../../../../arm-eabi/lib/thumb\libg.a(lib_a-fopen.o)
 .ARM.attributes
                0x00001765       0x30 d:/devkitpro/devkitarm/bin/../lib/gcc/arm-eabi/4.4.2/../../../../arm-eabi/lib/thumb\libg.a(lib_a-fprintf.o)
 .ARM.attributes
                0x00001795       0x30 d:/devkitpro/devkitarm/bin/../lib/gcc/arm-eabi/4.4.2/../../../../arm-eabi/lib/thumb\libg.a(lib_a-fread.o)
 .ARM.attributes
                0x000017c5       0x30 d:/devkitpro/devkitarm/bin/../lib/gcc/arm-eabi/4.4.2/../../../../arm-eabi/lib/thumb\libg.a(lib_a-freer.o)
 .ARM.attributes
                0x000017f5       0x30 d:/devkitpro/devkitarm/bin/../lib/gcc/arm-eabi/4.4.2/../../../../arm-eabi/lib/thumb\libg.a(lib_a-fseek.o)
 .ARM.attributes
                0x00001825       0x30 d:/devkitpro/devkitarm/bin/../lib/gcc/arm-eabi/4.4.2/../../../../arm-eabi/lib/thumb\libg.a(lib_a-fwalk.o)
 .ARM.attributes
                0x00001855       0x30 d:/devkitpro/devkitarm/bin/../lib/gcc/arm-eabi/4.4.2/../../../../arm-eabi/lib/thumb\libg.a(lib_a-gmtime.o)
 .ARM.attributes
                0x00001885       0x30 d:/devkitpro/devkitarm/bin/../lib/gcc/arm-eabi/4.4.2/../../../../arm-eabi/lib/thumb\libg.a(lib_a-gmtime_r.o)
 .ARM.attributes
                0x000018b5       0x30 d:/devkitpro/devkitarm/bin/../lib/gcc/arm-eabi/4.4.2/../../../../arm-eabi/lib/thumb\libg.a(lib_a-impure.o)
 .ARM.attributes
                0x000018e5       0x30 d:/devkitpro/devkitarm/bin/../lib/gcc/arm-eabi/4.4.2/../../../../arm-eabi/lib/thumb\libg.a(lib_a-init.o)
 .ARM.attributes
                0x00001915       0x30 d:/devkitpro/devkitarm/bin/../lib/gcc/arm-eabi/4.4.2/../../../../arm-eabi/lib/thumb\libg.a(lib_a-locale.o)
 .ARM.attributes
                0x00001945       0x30 d:/devkitpro/devkitarm/bin/../lib/gcc/arm-eabi/4.4.2/../../../../arm-eabi/lib/thumb\libg.a(lib_a-makebuf.o)
 .ARM.attributes
                0x00001975       0x30 d:/devkitpro/devkitarm/bin/../lib/gcc/arm-eabi/4.4.2/../../../../arm-eabi/lib/thumb\libg.a(lib_a-malloc.o)
 .ARM.attributes
                0x000019a5       0x30 d:/devkitpro/devkitarm/bin/../lib/gcc/arm-eabi/4.4.2/../../../../arm-eabi/lib/thumb\libg.a(lib_a-mallocr.o)
 .ARM.attributes
                0x000019d5       0x30 d:/devkitpro/devkitarm/bin/../lib/gcc/arm-eabi/4.4.2/../../../../arm-eabi/lib/thumb\libg.a(lib_a-memcmp.o)
 .ARM.attributes
                0x00001a05       0x30 d:/devkitpro/devkitarm/bin/../lib/gcc/arm-eabi/4.4.2/../../../../arm-eabi/lib/thumb\libg.a(lib_a-memcpy.o)
 .ARM.attributes
                0x00001a35       0x30 d:/devkitpro/devkitarm/bin/../lib/gcc/arm-eabi/4.4.2/../../../../arm-eabi/lib/thumb\libg.a(lib_a-memset.o)
 .ARM.attributes
                0x00001a65       0x30 d:/devkitpro/devkitarm/bin/../lib/gcc/arm-eabi/4.4.2/../../../../arm-eabi/lib/thumb\libg.a(lib_a-mktm_r.o)
 .ARM.attributes
                0x00001a95       0x30 d:/devkitpro/devkitarm/bin/../lib/gcc/arm-eabi/4.4.2/../../../../arm-eabi/lib/thumb\libg.a(lib_a-mlock.o)
 .ARM.attributes
                0x00001ac5       0x30 d:/devkitpro/devkitarm/bin/../lib/gcc/arm-eabi/4.4.2/../../../../arm-eabi/lib/thumb\libg.a(lib_a-realloc.o)
 .ARM.attributes
                0x00001af5       0x30 d:/devkitpro/devkitarm/bin/../lib/gcc/arm-eabi/4.4.2/../../../../arm-eabi/lib/thumb\libg.a(lib_a-reallocr.o)
 .ARM.attributes
                0x00001b25       0x30 d:/devkitpro/devkitarm/bin/../lib/gcc/arm-eabi/4.4.2/../../../../arm-eabi/lib/thumb\libg.a(lib_a-refill.o)
 .ARM.attributes
                0x00001b55       0x30 d:/devkitpro/devkitarm/bin/../lib/gcc/arm-eabi/4.4.2/../../../../arm-eabi/lib/thumb\libg.a(lib_a-sprintf.o)
 .ARM.attributes
                0x00001b85       0x30 d:/devkitpro/devkitarm/bin/../lib/gcc/arm-eabi/4.4.2/../../../../arm-eabi/lib/thumb\libg.a(lib_a-stdio.o)
 .ARM.attributes
                0x00001bb5       0x30 d:/devkitpro/devkitarm/bin/../lib/gcc/arm-eabi/4.4.2/../../../../arm-eabi/lib/thumb\libg.a(lib_a-strcasecmp.o)
 .ARM.attributes
                0x00001be5       0x30 d:/devkitpro/devkitarm/bin/../lib/gcc/arm-eabi/4.4.2/../../../../arm-eabi/lib/thumb\libg.a(lib_a-strcat.o)
 .ARM.attributes
                0x00001c15       0x30 d:/devkitpro/devkitarm/bin/../lib/gcc/arm-eabi/4.4.2/../../../../arm-eabi/lib/thumb\libg.a(lib_a-strcmp.o)
 .ARM.attributes
                0x00001c45       0x30 d:/devkitpro/devkitarm/bin/../lib/gcc/arm-eabi/4.4.2/../../../../arm-eabi/lib/thumb\libg.a(lib_a-strcpy.o)
 .ARM.attributes
                0x00001c75       0x30 d:/devkitpro/devkitarm/bin/../lib/gcc/arm-eabi/4.4.2/../../../../arm-eabi/lib/thumb\libg.a(lib_a-strlen.o)
 .ARM.attributes
                0x00001ca5       0x30 d:/devkitpro/devkitarm/bin/../lib/gcc/arm-eabi/4.4.2/../../../../arm-eabi/lib/thumb\libg.a(lib_a-svfprintf.o)
 .ARM.attributes
                0x00001cd5       0x30 d:/devkitpro/devkitarm/bin/../lib/gcc/arm-eabi/4.4.2/../../../../arm-eabi/lib/thumb\libg.a(lib_a-sysstat.o)
 .ARM.attributes
                0x00001d05       0x30 d:/devkitpro/devkitarm/bin/../lib/gcc/arm-eabi/4.4.2/../../../../arm-eabi/lib/thumb\libg.a(lib_a-time.o)
 .ARM.attributes
                0x00001d35       0x30 d:/devkitpro/devkitarm/bin/../lib/gcc/arm-eabi/4.4.2/../../../../arm-eabi/lib/thumb\libg.a(lib_a-tzlock.o)
 .ARM.attributes
                0x00001d65       0x30 d:/devkitpro/devkitarm/bin/../lib/gcc/arm-eabi/4.4.2/../../../../arm-eabi/lib/thumb\libg.a(lib_a-tzvars.o)
 .ARM.attributes
                0x00001d95       0x30 d:/devkitpro/devkitarm/bin/../lib/gcc/arm-eabi/4.4.2/../../../../arm-eabi/lib/thumb\libg.a(lib_a-vfprintf.o)
 .ARM.attributes
                0x00001dc5       0x30 d:/devkitpro/devkitarm/bin/../lib/gcc/arm-eabi/4.4.2/../../../../arm-eabi/lib/thumb\libg.a(lib_a-wcrtomb.o)
 .ARM.attributes
                0x00001df5       0x30 d:/devkitpro/devkitarm/bin/../lib/gcc/arm-eabi/4.4.2/../../../../arm-eabi/lib/thumb\libg.a(lib_a-wcsrtombs.o)
 .ARM.attributes
                0x00001e25       0x30 d:/devkitpro/devkitarm/bin/../lib/gcc/arm-eabi/4.4.2/../../../../arm-eabi/lib/thumb\libg.a(lib_a-wctomb_r.o)
 .ARM.attributes
                0x00001e55       0x30 d:/devkitpro/devkitarm/bin/../lib/gcc/arm-eabi/4.4.2/../../../../arm-eabi/lib/thumb\libg.a(lib_a-wsetup.o)
 .ARM.attributes
                0x00001e85       0x30 d:/devkitpro/devkitarm/bin/../lib/gcc/arm-eabi/4.4.2/../../../../arm-eabi/lib/thumb\libg.a(lib_a-__atexit.o)
 .ARM.attributes
                0x00001eb5       0x30 d:/devkitpro/devkitarm/bin/../lib/gcc/arm-eabi/4.4.2/../../../../arm-eabi/lib/thumb\libg.a(lib_a-ctype_.o)
 .ARM.attributes
                0x00001ee5       0x30 d:/devkitpro/devkitarm/bin/../lib/gcc/arm-eabi/4.4.2/../../../../arm-eabi/lib/thumb\libg.a(lib_a-dtoa.o)
 .ARM.attributes
                0x00001f15       0x30 d:/devkitpro/devkitarm/bin/../lib/gcc/arm-eabi/4.4.2/../../../../arm-eabi/lib/thumb\libg.a(lib_a-flags.o)
 .ARM.attributes
                0x00001f45       0x30 d:/devkitpro/devkitarm/bin/../lib/gcc/arm-eabi/4.4.2/../../../../arm-eabi/lib/thumb\libg.a(lib_a-fvwrite.o)
 .ARM.attributes
                0x00001f75       0x30 d:/devkitpro/devkitarm/bin/../lib/gcc/arm-eabi/4.4.2/../../../../arm-eabi/lib/thumb\libg.a(lib_a-gettzinfo.o)
 .ARM.attributes
                0x00001fa5       0x30 d:/devkitpro/devkitarm/bin/../lib/gcc/arm-eabi/4.4.2/../../../../arm-eabi/lib/thumb\libg.a(lib_a-mbtowc_r.o)
 .ARM.attributes
                0x00001fd5       0x30 d:/devkitpro/devkitarm/bin/../lib/gcc/arm-eabi/4.4.2/../../../../arm-eabi/lib/thumb\libg.a(lib_a-memchr.o)
 .ARM.attributes
                0x00002005       0x30 d:/devkitpro/devkitarm/bin/../lib/gcc/arm-eabi/4.4.2/../../../../arm-eabi/lib/thumb\libg.a(lib_a-memmove.o)
 .ARM.attributes
                0x00002035       0x30 d:/devkitpro/devkitarm/bin/../lib/gcc/arm-eabi/4.4.2/../../../../arm-eabi/lib/thumb\libg.a(lib_a-mprec.o)
 .ARM.attributes
                0x00002065       0x30 d:/devkitpro/devkitarm/bin/../lib/gcc/arm-eabi/4.4.2/../../../../arm-eabi/lib/thumb\libg.a(lib_a-s_isinfd.o)
 .ARM.attributes
                0x00002095       0x30 d:/devkitpro/devkitarm/bin/../lib/gcc/arm-eabi/4.4.2/../../../../arm-eabi/lib/thumb\libg.a(lib_a-s_isnand.o)
 .ARM.attributes
                0x000020c5       0x30 d:/devkitpro/devkitarm/bin/../lib/gcc/arm-eabi/4.4.2/../../../../arm-eabi/lib/thumb\libsysbase.a(close.o)
 .ARM.attributes
                0x000020f5       0x30 d:/devkitpro/devkitarm/bin/../lib/gcc/arm-eabi/4.4.2/../../../../arm-eabi/lib/thumb\libsysbase.a(fstat.o)
 .ARM.attributes
                0x00002125       0x30 d:/devkitpro/devkitarm/bin/../lib/gcc/arm-eabi/4.4.2/../../../../arm-eabi/lib/thumb\libsysbase.a(isatty.o)
 .ARM.attributes
                0x00002155       0x30 d:/devkitpro/devkitarm/bin/../lib/gcc/arm-eabi/4.4.2/../../../../arm-eabi/lib/thumb\libsysbase.a(lseek.o)
 .ARM.attributes
                0x00002185       0x30 d:/devkitpro/devkitarm/bin/../lib/gcc/arm-eabi/4.4.2/../../../../arm-eabi/lib/thumb\libsysbase.a(open.o)
 .ARM.attributes
                0x000021b5       0x30 d:/devkitpro/devkitarm/bin/../lib/gcc/arm-eabi/4.4.2/../../../../arm-eabi/lib/thumb\libsysbase.a(read.o)
 .ARM.attributes
                0x000021e5       0x30 d:/devkitpro/devkitarm/bin/../lib/gcc/arm-eabi/4.4.2/../../../../arm-eabi/lib/thumb\libsysbase.a(sbrk.o)
 .ARM.attributes
                0x00002215       0x30 d:/devkitpro/devkitarm/bin/../lib/gcc/arm-eabi/4.4.2/../../../../arm-eabi/lib/thumb\libsysbase.a(stat.o)
 .ARM.attributes
                0x00002245       0x30 d:/devkitpro/devkitarm/bin/../lib/gcc/arm-eabi/4.4.2/../../../../arm-eabi/lib/thumb\libsysbase.a(times.o)
 .ARM.attributes
                0x00002275       0x30 d:/devkitpro/devkitarm/bin/../lib/gcc/arm-eabi/4.4.2/../../../../arm-eabi/lib/thumb\libsysbase.a(write.o)
 .ARM.attributes
                0x000022a5       0x30 d:/devkitpro/devkitarm/bin/../lib/gcc/arm-eabi/4.4.2/../../../../arm-eabi/lib/thumb\libsysbase.a(malloc_vars.o)
 .ARM.attributes
                0x000022d5       0x30 d:/devkitpro/devkitarm/bin/../lib/gcc/arm-eabi/4.4.2/../../../../arm-eabi/lib/thumb\libsysbase.a(build_argv.o)
 .ARM.attributes
                0x00002305       0x30 d:/devkitpro/devkitarm/bin/../lib/gcc/arm-eabi/4.4.2/../../../../arm-eabi/lib/thumb\libsysbase.a(handle_manager.o)
 .ARM.attributes
                0x00002335       0x30 d:/devkitpro/devkitarm/bin/../lib/gcc/arm-eabi/4.4.2/../../../../arm-eabi/lib/thumb\libsysbase.a(dirent.o)
 .ARM.attributes
                0x00002365       0x30 d:/devkitpro/devkitarm/bin/../lib/gcc/arm-eabi/4.4.2/../../../../arm-eabi/lib/thumb\libsysbase.a(iosupport.o)
 .ARM.attributes
                0x00002395       0x30 d:/devkitpro/devkitarm/bin/../lib/gcc/arm-eabi/4.4.2/../../../../arm-eabi/lib/thumb\libsysbase.a(dir.o)
 .ARM.attributes
                0x000023c5       0x30 d:/devkitpro/devkitarm/bin/../lib/gcc/arm-eabi/4.4.2/../../../../arm-eabi/lib/thumb\libg.a(lib_a-errno.o)
 .ARM.attributes
                0x000023f5       0x30 d:/devkitpro/devkitarm/bin/../lib/gcc/arm-eabi/4.4.2/../../../../arm-eabi/lib/thumb\libg.a(lib_a-strchr.o)
 .ARM.attributes
                0x00002425       0x30 d:/devkitpro/devkitarm/bin/../lib/gcc/arm-eabi/4.4.2/../../../../arm-eabi/lib/thumb\libg.a(lib_a-strncmp.o)
 .ARM.attributes
                0x00002455       0x30 d:/devkitpro/devkitarm/bin/../lib/gcc/arm-eabi/4.4.2/../../../../arm-eabi/lib/thumb\libg.a(lib_a-strncpy.o)
 .ARM.attributes
                0x00002485       0x30 d:/devkitpro/devkitarm/bin/../lib/gcc/arm-eabi/4.4.2/../../../../arm-eabi/lib/thumb\libg.a(lib_a-strnlen.o)
 .ARM.attributes
                0x000024b5       0x30 d:/devkitpro/devkitarm/bin/../lib/gcc/arm-eabi/4.4.2/thumb/crtend.o
 .ARM.attributes
                0x000024e5       0x20 d:/devkitpro/devkitarm/bin/../lib/gcc/arm-eabi/4.4.2/thumb/crtn.o

.comment        0x00000000       0x22 load address 0x021573c4
 *(.comment)
 .comment       0x00000000       0x22 d:/devkitpro/devkitarm/bin/../lib/gcc/arm-eabi/4.4.2/thumb/crtbegin.o
                                 0x23 (size before relaxing)
 .comment       0x00000000       0x23 utils.o
 .comment       0x00000000       0x23 bg_bang.o
 .comment       0x00000000       0x23 bg_boom.o
 .comment       0x00000000       0x23 bg_desks.o
 .comment       0x00000000       0x23 bg_doors.o
 .comment       0x00000000       0x23 bg_duelStage.o
 .comment       0x00000000       0x23 bg_intro.o
 .comment       0x00000000       0x23 bg_mainMenu.o
 .comment       0x00000000       0x23 bg_mainStage.o
 .comment       0x00000000       0x23 mainFont.o
 .comment       0x00000000       0x23 AnimationManager.o
 .comment       0x00000000       0x23 ConfigPerson.o
 .comment       0x00000000       0x23 Door.o
 .comment       0x00000000       0x23 DuelStage.o
 .comment       0x00000000       0x23 Game.o
 .comment       0x00000000       0x23 LevelManager.o
 .comment       0x00000000       0x23 MainStage.o
 .comment       0x00000000       0x23 TextManager.o
 .comment       0x00000000       0x23 UIManager.o
 .comment       0x00000000       0x23 main.o
 .comment       0x00000000       0x23 d:/devkitPro/PAlib/lib\libpa9.a(PA.o)
 .comment       0x00000000       0x23 d:/devkitPro/PAlib/lib\libpa9.a(PA_BgEasy.o)
 .comment       0x00000000       0x23 d:/devkitPro/PAlib/lib\libpa9.a(PA_BgLargeMap.o)
 .comment       0x00000000       0x23 d:/devkitPro/PAlib/lib\libpa9.a(PA_BgTiles.o)
 .comment       0x00000000       0x23 d:/devkitPro/PAlib/lib\libpa9.a(PA_Draw.o)
 .comment       0x00000000       0x23 d:/devkitPro/PAlib/lib\libpa9.a(PA_Draw8bit.o)
 .comment       0x00000000       0x23 d:/devkitPro/PAlib/lib\libpa9.a(PA_Error.o)
 .comment       0x00000000       0x23 d:/devkitPro/PAlib/lib\libpa9.a(PA_Gif.o)
 .comment       0x00000000       0x23 d:/devkitPro/PAlib/lib\libpa9.a(PA_Inits.o)
 .comment       0x00000000       0x23 d:/devkitPro/PAlib/lib\libpa9.a(PA_Interrupt.o)
 .comment       0x00000000       0x23 d:/devkitPro/PAlib/lib\libpa9.a(PA_Keys.o)
 .comment       0x00000000       0x23 d:/devkitPro/PAlib/lib\libpa9.a(PA_Math.o)
 .comment       0x00000000       0x23 d:/devkitPro/PAlib/lib\libpa9.a(PA_NewBg.o)
 .comment       0x00000000       0x23 d:/devkitPro/PAlib/lib\libpa9.a(PA_Palette.o)
 .comment       0x00000000       0x23 d:/devkitPro/PAlib/lib\libpa9.a(PA_RTC.o)
 .comment       0x00000000       0x23 d:/devkitPro/PAlib/lib\libpa9.a(PA_Reco.o)
 .comment       0x00000000       0x23 d:/devkitPro/PAlib/lib\libpa9.a(PA_Sprite.o)
 .comment       0x00000000       0x23 d:/devkitPro/PAlib/lib\libpa9.a(PA_SpriteAnim.o)
 .comment       0x00000000       0x23 d:/devkitPro/PAlib/lib\libpa9.a(PA_Stuff.o)
 .comment       0x00000000       0x23 d:/devkitPro/PAlib/lib\libpa9.a(PA_Text.o)
 .comment       0x00000000       0x23 d:/devkitPro/PAlib/lib\libpa9.a(PA_Text8bit.o)
 .comment       0x00000000       0x23 d:/devkitPro/PAlib/lib\libpa9.a(PA_TextBits.o)
 .comment       0x00000000       0x23 d:/devkitPro/PAlib/lib\libpa9.a(dgif_lib.o)
 .comment       0x00000000       0x23 d:/devkitPro/PAlib/lib\libpa9.a(gif_err.o)
 .comment       0x00000000       0x23 d:/devkitPro/PAlib/lib\libpa9.a(gifalloc.o)
 .comment       0x00000000       0x23 d:/devkitPro/PAlib/lib\libpa9.a(PA_TiledFont.o)
 .comment       0x00000000       0x23 d:/devkitPro/PAlib/lib\libpa9.a(PA_BmpFont0.o)
 .comment       0x00000000       0x23 d:/devkitPro/PAlib/lib\libpa9.a(PA_BmpFont1.o)
 .comment       0x00000000       0x23 d:/devkitPro/PAlib/lib\libpa9.a(PA_BmpFont2.o)
 .comment       0x00000000       0x23 d:/devkitPro/PAlib/lib\libpa9.a(PA_BmpFont3.o)
 .comment       0x00000000       0x23 d:/devkitPro/PAlib/lib\libpa9.a(PA_BmpFont4.o)
 .comment       0x00000000       0x23 d:/devkitPro/PAlib/lib\libpa9.a(PA_16c.o)
 .comment       0x00000000       0x23 d:/devkitPro/PAlib/lib\libpa9.a(PA_BgRot.o)
 .comment       0x00000000       0x23 d:/devkitPro/PAlib/lib\libpa9.a(PA_Fifo.o)
 .comment       0x00000000       0x23 d:/devkitPro/PAlib/lib\libpa9.a(PA_Keyboard.o)
 .comment       0x00000000       0x23 d:/devkitPro/PAlib/lib\libpa9.a(PA_PaletteEx.o)
 .comment       0x00000000       0x23 d:/devkitPro/PAlib/lib\libpa9.a(keyboard.map.o)
 .comment       0x00000000       0x23 d:/devkitPro/PAlib/lib\libpa9.a(keyboard.pal.o)
 .comment       0x00000000       0x23 d:/devkitPro/PAlib/lib\libpa9.a(keyboard.raw.o)
 .comment       0x00000000       0x23 d:/devkitPro/libnds/lib\libnds9.a(keys.o)
 .comment       0x00000000       0x23 d:/devkitPro/libnds/lib\libnds9.a(system.o)
 .comment       0x00000000       0x23 d:/devkitPro/libnds/lib\libnds9.a(touch.o)
 .comment       0x00000000       0x23 d:/devkitPro/libnds/lib\libnds9.a(video.o)
 .comment       0x00000000       0x23 d:/devkitPro/libnds/lib\libnds9.a(initSystem.o)
 .comment       0x00000000       0x23 d:/devkitPro/libnds/lib\libnds9.a(fifosystem.o)
 .comment       0x00000000       0x23 d:/devkitPro/libnds/lib\libnds9.a(interrupts.o)
 .comment       0x00000000       0x23 d:/devkitPro/libnds/lib\libnds9.a(libnds_exit.o)
 .comment       0x00000000       0x23 d:/devkitpro/devkitarm/bin/../lib/gcc/arm-eabi/4.4.2/../../../../arm-eabi/lib/thumb\libstdc++.a(atexit_arm.o)
 .comment       0x00000000       0x23 d:/devkitpro/devkitarm/bin/../lib/gcc/arm-eabi/4.4.2/thumb\libgcc.a(_muldi3.o)
 .comment       0x00000000       0x23 d:/devkitpro/devkitarm/bin/../lib/gcc/arm-eabi/4.4.2/../../../../arm-eabi/lib/thumb\libg.a(lib_a-calloc.o)
 .comment       0x00000000       0x23 d:/devkitpro/devkitarm/bin/../lib/gcc/arm-eabi/4.4.2/../../../../arm-eabi/lib/thumb\libg.a(lib_a-callocr.o)
 .comment       0x00000000       0x23 d:/devkitpro/devkitarm/bin/../lib/gcc/arm-eabi/4.4.2/../../../../arm-eabi/lib/thumb\libg.a(lib_a-cxa_atexit.o)
 .comment       0x00000000       0x23 d:/devkitpro/devkitarm/bin/../lib/gcc/arm-eabi/4.4.2/../../../../arm-eabi/lib/thumb\libg.a(lib_a-fclose.o)
 .comment       0x00000000       0x23 d:/devkitpro/devkitarm/bin/../lib/gcc/arm-eabi/4.4.2/../../../../arm-eabi/lib/thumb\libg.a(lib_a-fflush.o)
 .comment       0x00000000       0x23 d:/devkitpro/devkitarm/bin/../lib/gcc/arm-eabi/4.4.2/../../../../arm-eabi/lib/thumb\libg.a(lib_a-findfp.o)
 .comment       0x00000000       0x23 d:/devkitpro/devkitarm/bin/../lib/gcc/arm-eabi/4.4.2/../../../../arm-eabi/lib/thumb\libg.a(lib_a-fopen.o)
 .comment       0x00000000       0x23 d:/devkitpro/devkitarm/bin/../lib/gcc/arm-eabi/4.4.2/../../../../arm-eabi/lib/thumb\libg.a(lib_a-fprintf.o)
 .comment       0x00000000       0x23 d:/devkitpro/devkitarm/bin/../lib/gcc/arm-eabi/4.4.2/../../../../arm-eabi/lib/thumb\libg.a(lib_a-fread.o)
 .comment       0x00000000       0x23 d:/devkitpro/devkitarm/bin/../lib/gcc/arm-eabi/4.4.2/../../../../arm-eabi/lib/thumb\libg.a(lib_a-freer.o)
 .comment       0x00000000       0x23 d:/devkitpro/devkitarm/bin/../lib/gcc/arm-eabi/4.4.2/../../../../arm-eabi/lib/thumb\libg.a(lib_a-fseek.o)
 .comment       0x00000000       0x23 d:/devkitpro/devkitarm/bin/../lib/gcc/arm-eabi/4.4.2/../../../../arm-eabi/lib/thumb\libg.a(lib_a-fwalk.o)
 .comment       0x00000000       0x23 d:/devkitpro/devkitarm/bin/../lib/gcc/arm-eabi/4.4.2/../../../../arm-eabi/lib/thumb\libg.a(lib_a-gmtime.o)
 .comment       0x00000000       0x23 d:/devkitpro/devkitarm/bin/../lib/gcc/arm-eabi/4.4.2/../../../../arm-eabi/lib/thumb\libg.a(lib_a-gmtime_r.o)
 .comment       0x00000000       0x23 d:/devkitpro/devkitarm/bin/../lib/gcc/arm-eabi/4.4.2/../../../../arm-eabi/lib/thumb\libg.a(lib_a-impure.o)
 .comment       0x00000000       0x23 d:/devkitpro/devkitarm/bin/../lib/gcc/arm-eabi/4.4.2/../../../../arm-eabi/lib/thumb\libg.a(lib_a-init.o)
 .comment       0x00000000       0x23 d:/devkitpro/devkitarm/bin/../lib/gcc/arm-eabi/4.4.2/../../../../arm-eabi/lib/thumb\libg.a(lib_a-locale.o)
 .comment       0x00000000       0x23 d:/devkitpro/devkitarm/bin/../lib/gcc/arm-eabi/4.4.2/../../../../arm-eabi/lib/thumb\libg.a(lib_a-makebuf.o)
 .comment       0x00000000       0x23 d:/devkitpro/devkitarm/bin/../lib/gcc/arm-eabi/4.4.2/../../../../arm-eabi/lib/thumb\libg.a(lib_a-malloc.o)
 .comment       0x00000000       0x23 d:/devkitpro/devkitarm/bin/../lib/gcc/arm-eabi/4.4.2/../../../../arm-eabi/lib/thumb\libg.a(lib_a-mallocr.o)
 .comment       0x00000000       0x23 d:/devkitpro/devkitarm/bin/../lib/gcc/arm-eabi/4.4.2/../../../../arm-eabi/lib/thumb\libg.a(lib_a-memcmp.o)
 .comment       0x00000000       0x23 d:/devkitpro/devkitarm/bin/../lib/gcc/arm-eabi/4.4.2/../../../../arm-eabi/lib/thumb\libg.a(lib_a-memcpy.o)
 .comment       0x00000000       0x23 d:/devkitpro/devkitarm/bin/../lib/gcc/arm-eabi/4.4.2/../../../../arm-eabi/lib/thumb\libg.a(lib_a-memset.o)
 .comment       0x00000000       0x23 d:/devkitpro/devkitarm/bin/../lib/gcc/arm-eabi/4.4.2/../../../../arm-eabi/lib/thumb\libg.a(lib_a-mktm_r.o)
 .comment       0x00000000       0x23 d:/devkitpro/devkitarm/bin/../lib/gcc/arm-eabi/4.4.2/../../../../arm-eabi/lib/thumb\libg.a(lib_a-mlock.o)
 .comment       0x00000000       0x23 d:/devkitpro/devkitarm/bin/../lib/gcc/arm-eabi/4.4.2/../../../../arm-eabi/lib/thumb\libg.a(lib_a-realloc.o)
 .comment       0x00000000       0x23 d:/devkitpro/devkitarm/bin/../lib/gcc/arm-eabi/4.4.2/../../../../arm-eabi/lib/thumb\libg.a(lib_a-reallocr.o)
 .comment       0x00000000       0x23 d:/devkitpro/devkitarm/bin/../lib/gcc/arm-eabi/4.4.2/../../../../arm-eabi/lib/thumb\libg.a(lib_a-refill.o)
 .comment       0x00000000       0x23 d:/devkitpro/devkitarm/bin/../lib/gcc/arm-eabi/4.4.2/../../../../arm-eabi/lib/thumb\libg.a(lib_a-sprintf.o)
 .comment       0x00000000       0x23 d:/devkitpro/devkitarm/bin/../lib/gcc/arm-eabi/4.4.2/../../../../arm-eabi/lib/thumb\libg.a(lib_a-stdio.o)
 .comment       0x00000000       0x23 d:/devkitpro/devkitarm/bin/../lib/gcc/arm-eabi/4.4.2/../../../../arm-eabi/lib/thumb\libg.a(lib_a-strcasecmp.o)
 .comment       0x00000000       0x23 d:/devkitpro/devkitarm/bin/../lib/gcc/arm-eabi/4.4.2/../../../../arm-eabi/lib/thumb\libg.a(lib_a-strcat.o)
 .comment       0x00000000       0x23 d:/devkitpro/devkitarm/bin/../lib/gcc/arm-eabi/4.4.2/../../../../arm-eabi/lib/thumb\libg.a(lib_a-strcmp.o)
 .comment       0x00000000       0x23 d:/devkitpro/devkitarm/bin/../lib/gcc/arm-eabi/4.4.2/../../../../arm-eabi/lib/thumb\libg.a(lib_a-strcpy.o)
 .comment       0x00000000       0x23 d:/devkitpro/devkitarm/bin/../lib/gcc/arm-eabi/4.4.2/../../../../arm-eabi/lib/thumb\libg.a(lib_a-strlen.o)
 .comment       0x00000000       0x23 d:/devkitpro/devkitarm/bin/../lib/gcc/arm-eabi/4.4.2/../../../../arm-eabi/lib/thumb\libg.a(lib_a-svfprintf.o)
 .comment       0x00000000       0x23 d:/devkitpro/devkitarm/bin/../lib/gcc/arm-eabi/4.4.2/../../../../arm-eabi/lib/thumb\libg.a(lib_a-sysstat.o)
 .comment       0x00000000       0x23 d:/devkitpro/devkitarm/bin/../lib/gcc/arm-eabi/4.4.2/../../../../arm-eabi/lib/thumb\libg.a(lib_a-time.o)
 .comment       0x00000000       0x23 d:/devkitpro/devkitarm/bin/../lib/gcc/arm-eabi/4.4.2/../../../../arm-eabi/lib/thumb\libg.a(lib_a-tzlock.o)
 .comment       0x00000000       0x23 d:/devkitpro/devkitarm/bin/../lib/gcc/arm-eabi/4.4.2/../../../../arm-eabi/lib/thumb\libg.a(lib_a-tzvars.o)
 .comment       0x00000000       0x23 d:/devkitpro/devkitarm/bin/../lib/gcc/arm-eabi/4.4.2/../../../../arm-eabi/lib/thumb\libg.a(lib_a-vfprintf.o)
 .comment       0x00000000       0x23 d:/devkitpro/devkitarm/bin/../lib/gcc/arm-eabi/4.4.2/../../../../arm-eabi/lib/thumb\libg.a(lib_a-wcrtomb.o)
 .comment       0x00000000       0x23 d:/devkitpro/devkitarm/bin/../lib/gcc/arm-eabi/4.4.2/../../../../arm-eabi/lib/thumb\libg.a(lib_a-wcsrtombs.o)
 .comment       0x00000000       0x23 d:/devkitpro/devkitarm/bin/../lib/gcc/arm-eabi/4.4.2/../../../../arm-eabi/lib/thumb\libg.a(lib_a-wctomb_r.o)
 .comment       0x00000000       0x23 d:/devkitpro/devkitarm/bin/../lib/gcc/arm-eabi/4.4.2/../../../../arm-eabi/lib/thumb\libg.a(lib_a-wsetup.o)
 .comment       0x00000000       0x23 d:/devkitpro/devkitarm/bin/../lib/gcc/arm-eabi/4.4.2/../../../../arm-eabi/lib/thumb\libg.a(lib_a-__atexit.o)
 .comment       0x00000000       0x23 d:/devkitpro/devkitarm/bin/../lib/gcc/arm-eabi/4.4.2/../../../../arm-eabi/lib/thumb\libg.a(lib_a-ctype_.o)
 .comment       0x00000000       0x23 d:/devkitpro/devkitarm/bin/../lib/gcc/arm-eabi/4.4.2/../../../../arm-eabi/lib/thumb\libg.a(lib_a-dtoa.o)
 .comment       0x00000000       0x23 d:/devkitpro/devkitarm/bin/../lib/gcc/arm-eabi/4.4.2/../../../../arm-eabi/lib/thumb\libg.a(lib_a-flags.o)
 .comment       0x00000000       0x23 d:/devkitpro/devkitarm/bin/../lib/gcc/arm-eabi/4.4.2/../../../../arm-eabi/lib/thumb\libg.a(lib_a-fvwrite.o)
 .comment       0x00000000       0x23 d:/devkitpro/devkitarm/bin/../lib/gcc/arm-eabi/4.4.2/../../../../arm-eabi/lib/thumb\libg.a(lib_a-gettzinfo.o)
 .comment       0x00000000       0x23 d:/devkitpro/devkitarm/bin/../lib/gcc/arm-eabi/4.4.2/../../../../arm-eabi/lib/thumb\libg.a(lib_a-mbtowc_r.o)
 .comment       0x00000000       0x23 d:/devkitpro/devkitarm/bin/../lib/gcc/arm-eabi/4.4.2/../../../../arm-eabi/lib/thumb\libg.a(lib_a-memchr.o)
 .comment       0x00000000       0x23 d:/devkitpro/devkitarm/bin/../lib/gcc/arm-eabi/4.4.2/../../../../arm-eabi/lib/thumb\libg.a(lib_a-memmove.o)
 .comment       0x00000000       0x23 d:/devkitpro/devkitarm/bin/../lib/gcc/arm-eabi/4.4.2/../../../../arm-eabi/lib/thumb\libg.a(lib_a-mprec.o)
 .comment       0x00000000       0x23 d:/devkitpro/devkitarm/bin/../lib/gcc/arm-eabi/4.4.2/../../../../arm-eabi/lib/thumb\libg.a(lib_a-s_isinfd.o)
 .comment       0x00000000       0x23 d:/devkitpro/devkitarm/bin/../lib/gcc/arm-eabi/4.4.2/../../../../arm-eabi/lib/thumb\libg.a(lib_a-s_isnand.o)
 .comment       0x00000000       0x23 d:/devkitpro/devkitarm/bin/../lib/gcc/arm-eabi/4.4.2/../../../../arm-eabi/lib/thumb\libsysbase.a(close.o)
 .comment       0x00000000       0x23 d:/devkitpro/devkitarm/bin/../lib/gcc/arm-eabi/4.4.2/../../../../arm-eabi/lib/thumb\libsysbase.a(fstat.o)
 .comment       0x00000000       0x23 d:/devkitpro/devkitarm/bin/../lib/gcc/arm-eabi/4.4.2/../../../../arm-eabi/lib/thumb\libsysbase.a(isatty.o)
 .comment       0x00000000       0x23 d:/devkitpro/devkitarm/bin/../lib/gcc/arm-eabi/4.4.2/../../../../arm-eabi/lib/thumb\libsysbase.a(lseek.o)
 .comment       0x00000000       0x23 d:/devkitpro/devkitarm/bin/../lib/gcc/arm-eabi/4.4.2/../../../../arm-eabi/lib/thumb\libsysbase.a(open.o)
 .comment       0x00000000       0x23 d:/devkitpro/devkitarm/bin/../lib/gcc/arm-eabi/4.4.2/../../../../arm-eabi/lib/thumb\libsysbase.a(read.o)
 .comment       0x00000000       0x23 d:/devkitpro/devkitarm/bin/../lib/gcc/arm-eabi/4.4.2/../../../../arm-eabi/lib/thumb\libsysbase.a(sbrk.o)
 .comment       0x00000000       0x23 d:/devkitpro/devkitarm/bin/../lib/gcc/arm-eabi/4.4.2/../../../../arm-eabi/lib/thumb\libsysbase.a(stat.o)
 .comment       0x00000000       0x23 d:/devkitpro/devkitarm/bin/../lib/gcc/arm-eabi/4.4.2/../../../../arm-eabi/lib/thumb\libsysbase.a(times.o)
 .comment       0x00000000       0x23 d:/devkitpro/devkitarm/bin/../lib/gcc/arm-eabi/4.4.2/../../../../arm-eabi/lib/thumb\libsysbase.a(write.o)
 .comment       0x00000000       0x23 d:/devkitpro/devkitarm/bin/../lib/gcc/arm-eabi/4.4.2/../../../../arm-eabi/lib/thumb\libsysbase.a(malloc_vars.o)
 .comment       0x00000000       0x23 d:/devkitpro/devkitarm/bin/../lib/gcc/arm-eabi/4.4.2/../../../../arm-eabi/lib/thumb\libsysbase.a(build_argv.o)
 .comment       0x00000000       0x23 d:/devkitpro/devkitarm/bin/../lib/gcc/arm-eabi/4.4.2/../../../../arm-eabi/lib/thumb\libsysbase.a(handle_manager.o)
 .comment       0x00000000       0x23 d:/devkitpro/devkitarm/bin/../lib/gcc/arm-eabi/4.4.2/../../../../arm-eabi/lib/thumb\libsysbase.a(dirent.o)
 .comment       0x00000000       0x23 d:/devkitpro/devkitarm/bin/../lib/gcc/arm-eabi/4.4.2/../../../../arm-eabi/lib/thumb\libsysbase.a(iosupport.o)
 .comment       0x00000000       0x23 d:/devkitpro/devkitarm/bin/../lib/gcc/arm-eabi/4.4.2/../../../../arm-eabi/lib/thumb\libsysbase.a(dir.o)
 .comment       0x00000000       0x23 d:/devkitpro/devkitarm/bin/../lib/gcc/arm-eabi/4.4.2/../../../../arm-eabi/lib/thumb\libg.a(lib_a-errno.o)
 .comment       0x00000000       0x23 d:/devkitpro/devkitarm/bin/../lib/gcc/arm-eabi/4.4.2/../../../../arm-eabi/lib/thumb\libg.a(lib_a-strchr.o)
 .comment       0x00000000       0x23 d:/devkitpro/devkitarm/bin/../lib/gcc/arm-eabi/4.4.2/../../../../arm-eabi/lib/thumb\libg.a(lib_a-strncmp.o)
 .comment       0x00000000       0x23 d:/devkitpro/devkitarm/bin/../lib/gcc/arm-eabi/4.4.2/../../../../arm-eabi/lib/thumb\libg.a(lib_a-strncpy.o)
 .comment       0x00000000       0x23 d:/devkitpro/devkitarm/bin/../lib/gcc/arm-eabi/4.4.2/../../../../arm-eabi/lib/thumb\libg.a(lib_a-strnlen.o)
 .comment       0x00000000       0x23 d:/devkitpro/devkitarm/bin/../lib/gcc/arm-eabi/4.4.2/thumb/crtend.o

.debug
 *(.debug)

.line
 *(.line)

.debug_srcinfo
 *(.debug_srcinfo)

.debug_sfnames
 *(.debug_sfnames)

.debug_aranges  0x00000000      0x6a0 load address 0x021573c4
 *(.debug_aranges)
 .debug_aranges
                0x00000000       0x20 utils.o
 .debug_aranges
                0x00000020       0x20 AnimationManager.o
 .debug_aranges
                0x00000040       0x20 ConfigPerson.o
 .debug_aranges
                0x00000060       0x20 Door.o
 .debug_aranges
                0x00000080       0x20 DuelStage.o
 .debug_aranges
                0x000000a0       0x20 Game.o
 .debug_aranges
                0x000000c0       0x20 LevelManager.o
 .debug_aranges
                0x000000e0       0x20 MainStage.o
 .debug_aranges
                0x00000100       0x20 TextManager.o
 .debug_aranges
                0x00000120       0x20 UIManager.o
 .debug_aranges
                0x00000140       0x20 main.o
 .debug_aranges
                0x00000160       0x20 d:/devkitPro/PAlib/lib\libpa9.a(PA.o)
 .debug_aranges
                0x00000180       0x20 d:/devkitPro/PAlib/lib\libpa9.a(PA_BgEasy.o)
 .debug_aranges
                0x000001a0       0x20 d:/devkitPro/PAlib/lib\libpa9.a(PA_BgLargeMap.o)
 .debug_aranges
                0x000001c0       0x20 d:/devkitPro/PAlib/lib\libpa9.a(PA_BgTiles.o)
 .debug_aranges
                0x000001e0       0x20 d:/devkitPro/PAlib/lib\libpa9.a(PA_Draw.o)
 .debug_aranges
                0x00000200       0x20 d:/devkitPro/PAlib/lib\libpa9.a(PA_Draw8bit.o)
 .debug_aranges
                0x00000220       0x20 d:/devkitPro/PAlib/lib\libpa9.a(PA_Error.o)
 .debug_aranges
                0x00000240       0x20 d:/devkitPro/PAlib/lib\libpa9.a(PA_Gif.o)
 .debug_aranges
                0x00000260       0x20 d:/devkitPro/PAlib/lib\libpa9.a(PA_Inits.o)
 .debug_aranges
                0x00000280       0x20 d:/devkitPro/PAlib/lib\libpa9.a(PA_Interrupt.o)
 .debug_aranges
                0x000002a0       0x20 d:/devkitPro/PAlib/lib\libpa9.a(PA_Keys.o)
 .debug_aranges
                0x000002c0       0x20 d:/devkitPro/PAlib/lib\libpa9.a(PA_Math.o)
 .debug_aranges
                0x000002e0       0x20 d:/devkitPro/PAlib/lib\libpa9.a(PA_NewBg.o)
 .debug_aranges
                0x00000300       0x20 d:/devkitPro/PAlib/lib\libpa9.a(PA_Palette.o)
 .debug_aranges
                0x00000320       0x20 d:/devkitPro/PAlib/lib\libpa9.a(PA_RTC.o)
 .debug_aranges
                0x00000340       0x20 d:/devkitPro/PAlib/lib\libpa9.a(PA_Reco.o)
 .debug_aranges
                0x00000360       0x20 d:/devkitPro/PAlib/lib\libpa9.a(PA_Sprite.o)
 .debug_aranges
                0x00000380       0x20 d:/devkitPro/PAlib/lib\libpa9.a(PA_SpriteAnim.o)
 .debug_aranges
                0x000003a0       0x20 d:/devkitPro/PAlib/lib\libpa9.a(PA_Stuff.o)
 .debug_aranges
                0x000003c0       0x20 d:/devkitPro/PAlib/lib\libpa9.a(PA_Text.o)
 .debug_aranges
                0x000003e0       0x20 d:/devkitPro/PAlib/lib\libpa9.a(PA_Text8bit.o)
 .debug_aranges
                0x00000400       0x20 d:/devkitPro/PAlib/lib\libpa9.a(PA_TextBits.o)
 .debug_aranges
                0x00000420       0x20 d:/devkitPro/PAlib/lib\libpa9.a(dgif_lib.o)
 .debug_aranges
                0x00000440       0x20 d:/devkitPro/PAlib/lib\libpa9.a(gif_err.o)
 .debug_aranges
                0x00000460       0x20 d:/devkitPro/PAlib/lib\libpa9.a(gifalloc.o)
 .debug_aranges
                0x00000480       0x20 d:/devkitPro/PAlib/lib\libpa9.a(PA_16c.o)
 .debug_aranges
                0x000004a0       0x20 d:/devkitPro/PAlib/lib\libpa9.a(PA_BgRot.o)
 .debug_aranges
                0x000004c0       0x20 d:/devkitPro/PAlib/lib\libpa9.a(PA_Fifo.o)
 .debug_aranges
                0x000004e0       0x20 d:/devkitPro/PAlib/lib\libpa9.a(PA_Keyboard.o)
 .debug_aranges
                0x00000500       0x20 d:/devkitPro/PAlib/lib\libpa9.a(PA_PaletteEx.o)
 .debug_aranges
                0x00000520       0x20 d:/devkitPro/libnds/lib\libnds9.a(keys.o)
 .debug_aranges
                0x00000540       0x20 d:/devkitPro/libnds/lib\libnds9.a(system.o)
 .debug_aranges
                0x00000560       0x20 d:/devkitPro/libnds/lib\libnds9.a(touch.o)
 .debug_aranges
                0x00000580       0x20 d:/devkitPro/libnds/lib\libnds9.a(video.o)
 .debug_aranges
                0x000005a0       0x20 d:/devkitPro/libnds/lib\libnds9.a(initSystem.o)
 .debug_aranges
                0x000005c0       0x20 d:/devkitPro/libnds/lib\libnds9.a(fifosystem.o)
 .debug_aranges
                0x000005e0       0x20 d:/devkitPro/libnds/lib\libnds9.a(interrupts.o)
 .debug_aranges
                0x00000600       0x20 d:/devkitPro/libnds/lib\libnds9.a(libnds_exit.o)
 .debug_aranges
                0x00000620       0x20 d:/devkitPro/libnds/lib\libnds9.a(dcache.o)
 .debug_aranges
                0x00000640       0x20 d:/devkitPro/libnds/lib\libnds9.a(mpu_setup.o)
 .debug_aranges
                0x00000660       0x20 d:/devkitPro/libnds/lib\libnds9.a(biosCalls.o)
 .debug_aranges
                0x00000680       0x20 d:/devkitPro/libnds/lib\libnds9.a(interruptDispatcher.o)

.debug_pubnames
                0x00000000     0x2881 load address 0x021573c4
 *(.debug_pubnames)
 .debug_pubnames
                0x00000000       0x26 utils.o
 .debug_pubnames
                0x00000026       0x1e bg_bang.o
 .debug_pubnames
                0x00000044       0x1e bg_boom.o
 .debug_pubnames
                0x00000062       0x1f bg_desks.o
 .debug_pubnames
                0x00000081       0x1f bg_doors.o
 .debug_pubnames
                0x000000a0       0x23 bg_duelStage.o
 .debug_pubnames
                0x000000c3       0x1f bg_intro.o
 .debug_pubnames
                0x000000e2       0x22 bg_mainMenu.o
 .debug_pubnames
                0x00000104       0x23 bg_mainStage.o
 .debug_pubnames
                0x00000127       0x1f mainFont.o
 .debug_pubnames
                0x00000146       0x5e AnimationManager.o
 .debug_pubnames
                0x000001a4      0x10e ConfigPerson.o
 .debug_pubnames
                0x000002b2      0x22a Door.o
 .debug_pubnames
                0x000004dc      0x195 DuelStage.o
 .debug_pubnames
                0x00000671      0x148 Game.o
 .debug_pubnames
                0x000007b9       0xf2 LevelManager.o
 .debug_pubnames
                0x000008ab      0x21b MainStage.o
 .debug_pubnames
                0x00000ac6       0xe3 TextManager.o
 .debug_pubnames
                0x00000ba9      0x2f9 UIManager.o
 .debug_pubnames
                0x00000ea2       0x80 main.o
 .debug_pubnames
                0x00000f22       0xfe d:/devkitPro/PAlib/lib\libpa9.a(PA.o)
 .debug_pubnames
                0x00001020       0x68 d:/devkitPro/PAlib/lib\libpa9.a(PA_BgEasy.o)
 .debug_pubnames
                0x00001088       0xdf d:/devkitPro/PAlib/lib\libpa9.a(PA_BgLargeMap.o)
 .debug_pubnames
                0x00001167      0x12e d:/devkitPro/PAlib/lib\libpa9.a(PA_BgTiles.o)
 .debug_pubnames
                0x00001295       0xa9 d:/devkitPro/PAlib/lib\libpa9.a(PA_Draw.o)
 .debug_pubnames
                0x0000133e       0x90 d:/devkitPro/PAlib/lib\libpa9.a(PA_Draw8bit.o)
 .debug_pubnames
                0x000013ce       0x2e d:/devkitPro/PAlib/lib\libpa9.a(PA_Error.o)
 .debug_pubnames
                0x000013fc       0xe9 d:/devkitPro/PAlib/lib\libpa9.a(PA_Gif.o)
 .debug_pubnames
                0x000014e5       0x39 d:/devkitPro/PAlib/lib\libpa9.a(PA_Inits.o)
 .debug_pubnames
                0x0000151e       0xa4 d:/devkitPro/PAlib/lib\libpa9.a(PA_Interrupt.o)
 .debug_pubnames
                0x000015c2       0x47 d:/devkitPro/PAlib/lib\libpa9.a(PA_Keys.o)
 .debug_pubnames
                0x00001609       0x40 d:/devkitPro/PAlib/lib\libpa9.a(PA_Math.o)
 .debug_pubnames
                0x00001649       0x73 d:/devkitPro/PAlib/lib\libpa9.a(PA_NewBg.o)
 .debug_pubnames
                0x000016bc       0x76 d:/devkitPro/PAlib/lib\libpa9.a(PA_Palette.o)
 .debug_pubnames
                0x00001732       0x54 d:/devkitPro/PAlib/lib\libpa9.a(PA_RTC.o)
 .debug_pubnames
                0x00001786       0xd1 d:/devkitPro/PAlib/lib\libpa9.a(PA_Reco.o)
 .debug_pubnames
                0x00001857      0x1d6 d:/devkitPro/PAlib/lib\libpa9.a(PA_Sprite.o)
 .debug_pubnames
                0x00001a2d       0x44 d:/devkitPro/PAlib/lib\libpa9.a(PA_SpriteAnim.o)
 .debug_pubnames
                0x00001a71       0x34 d:/devkitPro/PAlib/lib\libpa9.a(PA_Stuff.o)
 .debug_pubnames
                0x00001aa5      0x11c d:/devkitPro/PAlib/lib\libpa9.a(PA_Text.o)
 .debug_pubnames
                0x00001bc1       0xb4 d:/devkitPro/PAlib/lib\libpa9.a(PA_Text8bit.o)
 .debug_pubnames
                0x00001c75       0xc4 d:/devkitPro/PAlib/lib\libpa9.a(PA_TextBits.o)
 .debug_pubnames
                0x00001d39      0x132 d:/devkitPro/PAlib/lib\libpa9.a(dgif_lib.o)
 .debug_pubnames
                0x00001e6b       0x43 d:/devkitPro/PAlib/lib\libpa9.a(gif_err.o)
 .debug_pubnames
                0x00001eae       0xe1 d:/devkitPro/PAlib/lib\libpa9.a(gifalloc.o)
 .debug_pubnames
                0x00001f8f       0x23 d:/devkitPro/PAlib/lib\libpa9.a(PA_TiledFont.o)
 .debug_pubnames
                0x00001fb2       0x22 d:/devkitPro/PAlib/lib\libpa9.a(PA_BmpFont0.o)
 .debug_pubnames
                0x00001fd4       0x22 d:/devkitPro/PAlib/lib\libpa9.a(PA_BmpFont1.o)
 .debug_pubnames
                0x00001ff6       0x22 d:/devkitPro/PAlib/lib\libpa9.a(PA_BmpFont2.o)
 .debug_pubnames
                0x00002018       0x22 d:/devkitPro/PAlib/lib\libpa9.a(PA_BmpFont3.o)
 .debug_pubnames
                0x0000203a       0x22 d:/devkitPro/PAlib/lib\libpa9.a(PA_BmpFont4.o)
 .debug_pubnames
                0x0000205c       0xb0 d:/devkitPro/PAlib/lib\libpa9.a(PA_16c.o)
 .debug_pubnames
                0x0000210c       0x55 d:/devkitPro/PAlib/lib\libpa9.a(PA_BgRot.o)
 .debug_pubnames
                0x00002161       0x38 d:/devkitPro/PAlib/lib\libpa9.a(PA_Fifo.o)
 .debug_pubnames
                0x00002199       0xc0 d:/devkitPro/PAlib/lib\libpa9.a(PA_Keyboard.o)
 .debug_pubnames
                0x00002259       0x88 d:/devkitPro/PAlib/lib\libpa9.a(PA_PaletteEx.o)
 .debug_pubnames
                0x000022e1       0x23 d:/devkitPro/PAlib/lib\libpa9.a(keyboard.map.o)
 .debug_pubnames
                0x00002304       0x27 d:/devkitPro/PAlib/lib\libpa9.a(keyboard.pal.o)
 .debug_pubnames
                0x0000232b       0x25 d:/devkitPro/PAlib/lib\libpa9.a(keyboard.raw.o)
 .debug_pubnames
                0x00002350       0x79 d:/devkitPro/libnds/lib\libnds9.a(keys.o)
 .debug_pubnames
                0x000023c9       0x73 d:/devkitPro/libnds/lib\libnds9.a(system.o)
 .debug_pubnames
                0x0000243c       0x30 d:/devkitPro/libnds/lib\libnds9.a(touch.o)
 .debug_pubnames
                0x0000246c       0xeb d:/devkitPro/libnds/lib\libnds9.a(video.o)
 .debug_pubnames
                0x00002557       0x2d d:/devkitPro/libnds/lib\libnds9.a(initSystem.o)
 .debug_pubnames
                0x00002584      0x259 d:/devkitPro/libnds/lib\libnds9.a(fifosystem.o)
 .debug_pubnames
                0x000027dd       0x80 d:/devkitPro/libnds/lib\libnds9.a(interrupts.o)
 .debug_pubnames
                0x0000285d       0x24 d:/devkitPro/libnds/lib\libnds9.a(libnds_exit.o)

.debug_info     0x00000000    0x57de0 load address 0x021573c4
 *(.debug_info)
 .debug_info    0x00000000     0x1afc utils.o
 .debug_info    0x00001afc      0x190 bg_bang.o
 .debug_info    0x00001c8c      0x190 bg_boom.o
 .debug_info    0x00001e1c      0x190 bg_desks.o
 .debug_info    0x00001fac      0x190 bg_doors.o
 .debug_info    0x0000213c      0x190 bg_duelStage.o
 .debug_info    0x000022cc      0x190 bg_intro.o
 .debug_info    0x0000245c      0x190 bg_mainMenu.o
 .debug_info    0x000025ec      0x190 bg_mainStage.o
 .debug_info    0x0000277c      0x190 mainFont.o
 .debug_info    0x0000290c     0x1b35 AnimationManager.o
 .debug_info    0x00004441     0x1c05 ConfigPerson.o
 .debug_info    0x00006046     0x28eb Door.o
 .debug_info    0x00008931     0x2593 DuelStage.o
 .debug_info    0x0000aec4     0x2b90 Game.o
 .debug_info    0x0000da54     0x1d98 LevelManager.o
 .debug_info    0x0000f7ec     0x2d7d MainStage.o
 .debug_info    0x00012569     0x1f9c TextManager.o
 .debug_info    0x00014505     0x504d UIManager.o
 .debug_info    0x00019552     0x2a2e main.o
 .debug_info    0x0001bf80     0x2075 d:/devkitPro/PAlib/lib\libpa9.a(PA.o)
 .debug_info    0x0001dff5     0x1fb1 d:/devkitPro/PAlib/lib\libpa9.a(PA_BgEasy.o)
 .debug_info    0x0001ffa6     0x27f5 d:/devkitPro/PAlib/lib\libpa9.a(PA_BgLargeMap.o)
 .debug_info    0x0002279b     0x215d d:/devkitPro/PAlib/lib\libpa9.a(PA_BgTiles.o)
 .debug_info    0x000248f8     0x1e07 d:/devkitPro/PAlib/lib\libpa9.a(PA_Draw.o)
 .debug_info    0x000266ff     0x1eb6 d:/devkitPro/PAlib/lib\libpa9.a(PA_Draw8bit.o)
 .debug_info    0x000285b5     0x1ae2 d:/devkitPro/PAlib/lib\libpa9.a(PA_Error.o)
 .debug_info    0x0002a097     0x222d d:/devkitPro/PAlib/lib\libpa9.a(PA_Gif.o)
 .debug_info    0x0002c2c4     0x2572 d:/devkitPro/PAlib/lib\libpa9.a(PA_Inits.o)
 .debug_info    0x0002e836     0x1c96 d:/devkitPro/PAlib/lib\libpa9.a(PA_Interrupt.o)
 .debug_info    0x000304cc     0x1d39 d:/devkitPro/PAlib/lib\libpa9.a(PA_Keys.o)
 .debug_info    0x00032205     0x1ca3 d:/devkitPro/PAlib/lib\libpa9.a(PA_Math.o)
 .debug_info    0x00033ea8     0x232c d:/devkitPro/PAlib/lib\libpa9.a(PA_NewBg.o)
 .debug_info    0x000361d4     0x1e44 d:/devkitPro/PAlib/lib\libpa9.a(PA_Palette.o)
 .debug_info    0x00038018     0x1edd d:/devkitPro/PAlib/lib\libpa9.a(PA_RTC.o)
 .debug_info    0x00039ef5     0x1fbb d:/devkitPro/PAlib/lib\libpa9.a(PA_Reco.o)
 .debug_info    0x0003beb0     0x20a9 d:/devkitPro/PAlib/lib\libpa9.a(PA_Sprite.o)
 .debug_info    0x0003df59     0x1d40 d:/devkitPro/PAlib/lib\libpa9.a(PA_SpriteAnim.o)
 .debug_info    0x0003fc99     0x1d9b d:/devkitPro/PAlib/lib\libpa9.a(PA_Stuff.o)
 .debug_info    0x00041a34     0x2069 d:/devkitPro/PAlib/lib\libpa9.a(PA_Text.o)
 .debug_info    0x00043a9d     0x2d3b d:/devkitPro/PAlib/lib\libpa9.a(PA_Text8bit.o)
 .debug_info    0x000467d8     0x1f33 d:/devkitPro/PAlib/lib\libpa9.a(PA_TextBits.o)
 .debug_info    0x0004870b     0x1747 d:/devkitPro/PAlib/lib\libpa9.a(dgif_lib.o)
 .debug_info    0x00049e52      0x99a d:/devkitPro/PAlib/lib\libpa9.a(gif_err.o)
 .debug_info    0x0004a7ec      0x6e9 d:/devkitPro/PAlib/lib\libpa9.a(gifalloc.o)
 .debug_info    0x0004aed5      0x190 d:/devkitPro/PAlib/lib\libpa9.a(PA_TiledFont.o)
 .debug_info    0x0004b065      0x190 d:/devkitPro/PAlib/lib\libpa9.a(PA_BmpFont0.o)
 .debug_info    0x0004b1f5      0x190 d:/devkitPro/PAlib/lib\libpa9.a(PA_BmpFont1.o)
 .debug_info    0x0004b385      0x190 d:/devkitPro/PAlib/lib\libpa9.a(PA_BmpFont2.o)
 .debug_info    0x0004b515      0x190 d:/devkitPro/PAlib/lib\libpa9.a(PA_BmpFont3.o)
 .debug_info    0x0004b6a5      0x190 d:/devkitPro/PAlib/lib\libpa9.a(PA_BmpFont4.o)
 .debug_info    0x0004b835     0x227f d:/devkitPro/PAlib/lib\libpa9.a(PA_16c.o)
 .debug_info    0x0004dab4     0x1c30 d:/devkitPro/PAlib/lib\libpa9.a(PA_BgRot.o)
 .debug_info    0x0004f6e4     0x1d11 d:/devkitPro/PAlib/lib\libpa9.a(PA_Fifo.o)
 .debug_info    0x000513f5     0x203d d:/devkitPro/PAlib/lib\libpa9.a(PA_Keyboard.o)
 .debug_info    0x00053432     0x1db8 d:/devkitPro/PAlib/lib\libpa9.a(PA_PaletteEx.o)
 .debug_info    0x000551ea       0x54 d:/devkitPro/PAlib/lib\libpa9.a(keyboard.map.o)
 .debug_info    0x0005523e       0x53 d:/devkitPro/PAlib/lib\libpa9.a(keyboard.pal.o)
 .debug_info    0x00055291       0x54 d:/devkitPro/PAlib/lib\libpa9.a(keyboard.raw.o)
 .debug_info    0x000552e5      0x31b d:/devkitPro/libnds/lib\libnds9.a(keys.o)
 .debug_info    0x00055600      0x5c7 d:/devkitPro/libnds/lib\libnds9.a(system.o)
 .debug_info    0x00055bc7      0x228 d:/devkitPro/libnds/lib\libnds9.a(touch.o)
 .debug_info    0x00055def      0x5ad d:/devkitPro/libnds/lib\libnds9.a(video.o)
 .debug_info    0x0005639c      0x416 d:/devkitPro/libnds/lib\libnds9.a(initSystem.o)
 .debug_info    0x000567b2      0xf89 d:/devkitPro/libnds/lib\libnds9.a(fifosystem.o)
 .debug_info    0x0005773b      0x340 d:/devkitPro/libnds/lib\libnds9.a(interrupts.o)
 .debug_info    0x00057a7b       0x4f d:/devkitPro/libnds/lib\libnds9.a(libnds_exit.o)
 .debug_info    0x00057aca       0xbe d:/devkitPro/libnds/lib\libnds9.a(dcache.o)
 .debug_info    0x00057b88       0xc8 d:/devkitPro/libnds/lib\libnds9.a(mpu_setup.o)
 .debug_info    0x00057c50       0xc3 d:/devkitPro/libnds/lib\libnds9.a(biosCalls.o)
 .debug_info    0x00057d13       0xcd d:/devkitPro/libnds/lib\libnds9.a(interruptDispatcher.o)

.debug_abbrev   0x00000000     0x904d load address 0x021573c4
 *(.debug_abbrev)
 .debug_abbrev  0x00000000      0x220 utils.o
 .debug_abbrev  0x00000220       0xcf bg_bang.o
 .debug_abbrev  0x000002ef       0xcf bg_boom.o
 .debug_abbrev  0x000003be       0xcf bg_desks.o
 .debug_abbrev  0x0000048d       0xcf bg_doors.o
 .debug_abbrev  0x0000055c       0xcf bg_duelStage.o
 .debug_abbrev  0x0000062b       0xcf bg_intro.o
 .debug_abbrev  0x000006fa       0xcf bg_mainMenu.o
 .debug_abbrev  0x000007c9       0xcf bg_mainStage.o
 .debug_abbrev  0x00000898       0xcf mainFont.o
 .debug_abbrev  0x00000967      0x24c AnimationManager.o
 .debug_abbrev  0x00000bb3      0x28d ConfigPerson.o
 .debug_abbrev  0x00000e40      0x41c Door.o
 .debug_abbrev  0x0000125c      0x419 DuelStage.o
 .debug_abbrev  0x00001675      0x46a Game.o
 .debug_abbrev  0x00001adf      0x345 LevelManager.o
 .debug_abbrev  0x00001e24      0x490 MainStage.o
 .debug_abbrev  0x000022b4      0x356 TextManager.o
 .debug_abbrev  0x0000260a      0x45b UIManager.o
 .debug_abbrev  0x00002a65      0x4a4 main.o
 .debug_abbrev  0x00002f09      0x27b d:/devkitPro/PAlib/lib\libpa9.a(PA.o)
 .debug_abbrev  0x00003184      0x316 d:/devkitPro/PAlib/lib\libpa9.a(PA_BgEasy.o)
 .debug_abbrev  0x0000349a      0x326 d:/devkitPro/PAlib/lib\libpa9.a(PA_BgLargeMap.o)
 .debug_abbrev  0x000037c0      0x317 d:/devkitPro/PAlib/lib\libpa9.a(PA_BgTiles.o)
 .debug_abbrev  0x00003ad7      0x26c d:/devkitPro/PAlib/lib\libpa9.a(PA_Draw.o)
 .debug_abbrev  0x00003d43      0x274 d:/devkitPro/PAlib/lib\libpa9.a(PA_Draw8bit.o)
 .debug_abbrev  0x00003fb7      0x1e6 d:/devkitPro/PAlib/lib\libpa9.a(PA_Error.o)
 .debug_abbrev  0x0000419d      0x348 d:/devkitPro/PAlib/lib\libpa9.a(PA_Gif.o)
 .debug_abbrev  0x000044e5      0x308 d:/devkitPro/PAlib/lib\libpa9.a(PA_Inits.o)
 .debug_abbrev  0x000047ed      0x22e d:/devkitPro/PAlib/lib\libpa9.a(PA_Interrupt.o)
 .debug_abbrev  0x00004a1b      0x224 d:/devkitPro/PAlib/lib\libpa9.a(PA_Keys.o)
 .debug_abbrev  0x00004c3f      0x277 d:/devkitPro/PAlib/lib\libpa9.a(PA_Math.o)
 .debug_abbrev  0x00004eb6      0x32d d:/devkitPro/PAlib/lib\libpa9.a(PA_NewBg.o)
 .debug_abbrev  0x000051e3      0x278 d:/devkitPro/PAlib/lib\libpa9.a(PA_Palette.o)
 .debug_abbrev  0x0000545b      0x239 d:/devkitPro/PAlib/lib\libpa9.a(PA_RTC.o)
 .debug_abbrev  0x00005694      0x317 d:/devkitPro/PAlib/lib\libpa9.a(PA_Reco.o)
 .debug_abbrev  0x000059ab      0x369 d:/devkitPro/PAlib/lib\libpa9.a(PA_Sprite.o)
 .debug_abbrev  0x00005d14      0x2b6 d:/devkitPro/PAlib/lib\libpa9.a(PA_SpriteAnim.o)
 .debug_abbrev  0x00005fca      0x239 d:/devkitPro/PAlib/lib\libpa9.a(PA_Stuff.o)
 .debug_abbrev  0x00006203      0x339 d:/devkitPro/PAlib/lib\libpa9.a(PA_Text.o)
 .debug_abbrev  0x0000653c      0x369 d:/devkitPro/PAlib/lib\libpa9.a(PA_Text8bit.o)
 .debug_abbrev  0x000068a5      0x2b7 d:/devkitPro/PAlib/lib\libpa9.a(PA_TextBits.o)
 .debug_abbrev  0x00006b5c      0x303 d:/devkitPro/PAlib/lib\libpa9.a(dgif_lib.o)
 .debug_abbrev  0x00006e5f      0x19f d:/devkitPro/PAlib/lib\libpa9.a(gif_err.o)
 .debug_abbrev  0x00006ffe      0x24d d:/devkitPro/PAlib/lib\libpa9.a(gifalloc.o)
 .debug_abbrev  0x0000724b       0xcf d:/devkitPro/PAlib/lib\libpa9.a(PA_TiledFont.o)
 .debug_abbrev  0x0000731a       0xcf d:/devkitPro/PAlib/lib\libpa9.a(PA_BmpFont0.o)
 .debug_abbrev  0x000073e9       0xcf d:/devkitPro/PAlib/lib\libpa9.a(PA_BmpFont1.o)
 .debug_abbrev  0x000074b8       0xcf d:/devkitPro/PAlib/lib\libpa9.a(PA_BmpFont2.o)
 .debug_abbrev  0x00007587       0xcf d:/devkitPro/PAlib/lib\libpa9.a(PA_BmpFont3.o)
 .debug_abbrev  0x00007656       0xcf d:/devkitPro/PAlib/lib\libpa9.a(PA_BmpFont4.o)
 .debug_abbrev  0x00007725      0x341 d:/devkitPro/PAlib/lib\libpa9.a(PA_16c.o)
 .debug_abbrev  0x00007a66      0x256 d:/devkitPro/PAlib/lib\libpa9.a(PA_BgRot.o)
 .debug_abbrev  0x00007cbc      0x211 d:/devkitPro/PAlib/lib\libpa9.a(PA_Fifo.o)
 .debug_abbrev  0x00007ecd      0x302 d:/devkitPro/PAlib/lib\libpa9.a(PA_Keyboard.o)
 .debug_abbrev  0x000081cf      0x22b d:/devkitPro/PAlib/lib\libpa9.a(PA_PaletteEx.o)
 .debug_abbrev  0x000083fa       0x50 d:/devkitPro/PAlib/lib\libpa9.a(keyboard.map.o)
 .debug_abbrev  0x0000844a       0x50 d:/devkitPro/PAlib/lib\libpa9.a(keyboard.pal.o)
 .debug_abbrev  0x0000849a       0x50 d:/devkitPro/PAlib/lib\libpa9.a(keyboard.raw.o)
 .debug_abbrev  0x000084ea      0x160 d:/devkitPro/libnds/lib\libnds9.a(keys.o)
 .debug_abbrev  0x0000864a      0x17c d:/devkitPro/libnds/lib\libnds9.a(system.o)
 .debug_abbrev  0x000087c6      0x107 d:/devkitPro/libnds/lib\libnds9.a(touch.o)
 .debug_abbrev  0x000088cd       0xfc d:/devkitPro/libnds/lib\libnds9.a(video.o)
 .debug_abbrev  0x000089c9      0x15f d:/devkitPro/libnds/lib\libnds9.a(initSystem.o)
 .debug_abbrev  0x00008b28      0x322 d:/devkitPro/libnds/lib\libnds9.a(fifosystem.o)
 .debug_abbrev  0x00008e4a      0x170 d:/devkitPro/libnds/lib\libnds9.a(interrupts.o)
 .debug_abbrev  0x00008fba       0x43 d:/devkitPro/libnds/lib\libnds9.a(libnds_exit.o)
 .debug_abbrev  0x00008ffd       0x14 d:/devkitPro/libnds/lib\libnds9.a(dcache.o)
 .debug_abbrev  0x00009011       0x14 d:/devkitPro/libnds/lib\libnds9.a(mpu_setup.o)
 .debug_abbrev  0x00009025       0x14 d:/devkitPro/libnds/lib\libnds9.a(biosCalls.o)
 .debug_abbrev  0x00009039       0x14 d:/devkitPro/libnds/lib\libnds9.a(interruptDispatcher.o)

.debug_line     0x00000000     0xf291 load address 0x021573c4
 *(.debug_line)
 .debug_line    0x00000000      0x39b utils.o
 .debug_line    0x0000039b       0xc2 bg_bang.o
 .debug_line    0x0000045d       0xc2 bg_boom.o
 .debug_line    0x0000051f       0xc3 bg_desks.o
 .debug_line    0x000005e2       0xc3 bg_doors.o
 .debug_line    0x000006a5       0xc7 bg_duelStage.o
 .debug_line    0x0000076c       0xc3 bg_intro.o
 .debug_line    0x0000082f       0xc6 bg_mainMenu.o
 .debug_line    0x000008f5       0xc7 bg_mainStage.o
 .debug_line    0x000009bc       0xc3 mainFont.o
 .debug_line    0x00000a7f      0x3f3 AnimationManager.o
 .debug_line    0x00000e72      0x3c8 ConfigPerson.o
 .debug_line    0x0000123a      0x588 Door.o
 .debug_line    0x000017c2      0x5fd DuelStage.o
 .debug_line    0x00001dbf      0x5b3 Game.o
 .debug_line    0x00002372      0x432 LevelManager.o
 .debug_line    0x000027a4      0x75a MainStage.o
 .debug_line    0x00002efe      0x4f1 TextManager.o
 .debug_line    0x000033ef      0xbf1 UIManager.o
 .debug_line    0x00003fe0      0x5da main.o
 .debug_line    0x000045ba      0x417 d:/devkitPro/PAlib/lib\libpa9.a(PA.o)
 .debug_line    0x000049d1      0x4b6 d:/devkitPro/PAlib/lib\libpa9.a(PA_BgEasy.o)
 .debug_line    0x00004e87      0xbcb d:/devkitPro/PAlib/lib\libpa9.a(PA_BgLargeMap.o)
 .debug_line    0x00005a52      0x543 d:/devkitPro/PAlib/lib\libpa9.a(PA_BgTiles.o)
 .debug_line    0x00005f95      0x43d d:/devkitPro/PAlib/lib\libpa9.a(PA_Draw.o)
 .debug_line    0x000063d2      0x458 d:/devkitPro/PAlib/lib\libpa9.a(PA_Draw8bit.o)
 .debug_line    0x0000682a      0x38c d:/devkitPro/PAlib/lib\libpa9.a(PA_Error.o)
 .debug_line    0x00006bb6      0x4e7 d:/devkitPro/PAlib/lib\libpa9.a(PA_Gif.o)
 .debug_line    0x0000709d      0x525 d:/devkitPro/PAlib/lib\libpa9.a(PA_Inits.o)
 .debug_line    0x000075c2      0x3e3 d:/devkitPro/PAlib/lib\libpa9.a(PA_Interrupt.o)
 .debug_line    0x000079a5      0x3d9 d:/devkitPro/PAlib/lib\libpa9.a(PA_Keys.o)
 .debug_line    0x00007d7e      0x404 d:/devkitPro/PAlib/lib\libpa9.a(PA_Math.o)
 .debug_line    0x00008182      0x67e d:/devkitPro/PAlib/lib\libpa9.a(PA_NewBg.o)
 .debug_line    0x00008800      0x450 d:/devkitPro/PAlib/lib\libpa9.a(PA_Palette.o)
 .debug_line    0x00008c50      0x3d1 d:/devkitPro/PAlib/lib\libpa9.a(PA_RTC.o)
 .debug_line    0x00009021      0x4cb d:/devkitPro/PAlib/lib\libpa9.a(PA_Reco.o)
 .debug_line    0x000094ec      0x511 d:/devkitPro/PAlib/lib\libpa9.a(PA_Sprite.o)
 .debug_line    0x000099fd      0x489 d:/devkitPro/PAlib/lib\libpa9.a(PA_SpriteAnim.o)
 .debug_line    0x00009e86      0x3e5 d:/devkitPro/PAlib/lib\libpa9.a(PA_Stuff.o)
 .debug_line    0x0000a26b      0x64c d:/devkitPro/PAlib/lib\libpa9.a(PA_Text.o)
 .debug_line    0x0000a8b7      0x986 d:/devkitPro/PAlib/lib\libpa9.a(PA_Text8bit.o)
 .debug_line    0x0000b23d      0x4a9 d:/devkitPro/PAlib/lib\libpa9.a(PA_TextBits.o)
 .debug_line    0x0000b6e6      0x53a d:/devkitPro/PAlib/lib\libpa9.a(dgif_lib.o)
 .debug_line    0x0000bc20      0x138 d:/devkitPro/PAlib/lib\libpa9.a(gif_err.o)
 .debug_line    0x0000bd58      0x1a3 d:/devkitPro/PAlib/lib\libpa9.a(gifalloc.o)
 .debug_line    0x0000befb       0xee d:/devkitPro/PAlib/lib\libpa9.a(PA_TiledFont.o)
 .debug_line    0x0000bfe9       0xee d:/devkitPro/PAlib/lib\libpa9.a(PA_BmpFont0.o)
 .debug_line    0x0000c0d7       0xee d:/devkitPro/PAlib/lib\libpa9.a(PA_BmpFont1.o)
 .debug_line    0x0000c1c5       0xee d:/devkitPro/PAlib/lib\libpa9.a(PA_BmpFont2.o)
 .debug_line    0x0000c2b3       0xee d:/devkitPro/PAlib/lib\libpa9.a(PA_BmpFont3.o)
 .debug_line    0x0000c3a1       0xee d:/devkitPro/PAlib/lib\libpa9.a(PA_BmpFont4.o)
 .debug_line    0x0000c48f      0x518 d:/devkitPro/PAlib/lib\libpa9.a(PA_16c.o)
 .debug_line    0x0000c9a7      0x3b2 d:/devkitPro/PAlib/lib\libpa9.a(PA_BgRot.o)
 .debug_line    0x0000cd59      0x42d d:/devkitPro/PAlib/lib\libpa9.a(PA_Fifo.o)
 .debug_line    0x0000d186      0x546 d:/devkitPro/PAlib/lib\libpa9.a(PA_Keyboard.o)
 .debug_line    0x0000d6cc      0x3e5 d:/devkitPro/PAlib/lib\libpa9.a(PA_PaletteEx.o)
 .debug_line    0x0000dab1       0x55 d:/devkitPro/PAlib/lib\libpa9.a(keyboard.map.o)
 .debug_line    0x0000db06       0x55 d:/devkitPro/PAlib/lib\libpa9.a(keyboard.pal.o)
 .debug_line    0x0000db5b       0x55 d:/devkitPro/PAlib/lib\libpa9.a(keyboard.raw.o)
 .debug_line    0x0000dbb0      0x292 d:/devkitPro/libnds/lib\libnds9.a(keys.o)
 .debug_line    0x0000de42      0x25c d:/devkitPro/libnds/lib\libnds9.a(system.o)
 .debug_line    0x0000e09e      0x222 d:/devkitPro/libnds/lib\libnds9.a(touch.o)
 .debug_line    0x0000e2c0      0x1ce d:/devkitPro/libnds/lib\libnds9.a(video.o)
 .debug_line    0x0000e48e      0x2d8 d:/devkitPro/libnds/lib\libnds9.a(initSystem.o)
 .debug_line    0x0000e766      0x5db d:/devkitPro/libnds/lib\libnds9.a(fifosystem.o)
 .debug_line    0x0000ed41      0x1b5 d:/devkitPro/libnds/lib\libnds9.a(interrupts.o)
 .debug_line    0x0000eef6       0x88 d:/devkitPro/libnds/lib\libnds9.a(libnds_exit.o)
 .debug_line    0x0000ef7e       0xa4 d:/devkitPro/libnds/lib\libnds9.a(dcache.o)
 .debug_line    0x0000f022       0xeb d:/devkitPro/libnds/lib\libnds9.a(mpu_setup.o)
 .debug_line    0x0000f10d       0xc3 d:/devkitPro/libnds/lib\libnds9.a(biosCalls.o)
 .debug_line    0x0000f1d0       0xc1 d:/devkitPro/libnds/lib\libnds9.a(interruptDispatcher.o)

.debug_frame    0x00000000     0x2ce4 load address 0x021573c4
 *(.debug_frame)
 .debug_frame   0x00000000       0x54 utils.o
 .debug_frame   0x00000054       0x64 AnimationManager.o
 .debug_frame   0x000000b8       0x90 ConfigPerson.o
 .debug_frame   0x00000148      0x224 Door.o
 .debug_frame   0x0000036c      0x1d8 DuelStage.o
 .debug_frame   0x00000544      0x1d8 Game.o
 .debug_frame   0x0000071c       0x98 LevelManager.o
 .debug_frame   0x000007b4      0x2ac MainStage.o
 .debug_frame   0x00000a60       0xe0 TextManager.o
 .debug_frame   0x00000b40      0x370 UIManager.o
 .debug_frame   0x00000eb0       0xe4 main.o
 .debug_frame   0x00000f94       0x58 d:/devkitPro/PAlib/lib\libpa9.a(PA.o)
 .debug_frame   0x00000fec       0xc0 d:/devkitPro/PAlib/lib\libpa9.a(PA_BgEasy.o)
 .debug_frame   0x000010ac      0x1cc d:/devkitPro/PAlib/lib\libpa9.a(PA_BgLargeMap.o)
 .debug_frame   0x00001278      0x140 d:/devkitPro/PAlib/lib\libpa9.a(PA_BgTiles.o)
 .debug_frame   0x000013b8       0x48 d:/devkitPro/PAlib/lib\libpa9.a(PA_Draw.o)
 .debug_frame   0x00001400       0xac d:/devkitPro/PAlib/lib\libpa9.a(PA_Draw8bit.o)
 .debug_frame   0x000014ac       0x54 d:/devkitPro/PAlib/lib\libpa9.a(PA_Error.o)
 .debug_frame   0x00001500       0xc8 d:/devkitPro/PAlib/lib\libpa9.a(PA_Gif.o)
 .debug_frame   0x000015c8       0x60 d:/devkitPro/PAlib/lib\libpa9.a(PA_Inits.o)
 .debug_frame   0x00001628       0x48 d:/devkitPro/PAlib/lib\libpa9.a(PA_Interrupt.o)
 .debug_frame   0x00001670       0x60 d:/devkitPro/PAlib/lib\libpa9.a(PA_Keys.o)
 .debug_frame   0x000016d0       0x44 d:/devkitPro/PAlib/lib\libpa9.a(PA_Math.o)
 .debug_frame   0x00001714       0xe8 d:/devkitPro/PAlib/lib\libpa9.a(PA_NewBg.o)
 .debug_frame   0x000017fc       0x88 d:/devkitPro/PAlib/lib\libpa9.a(PA_Palette.o)
 .debug_frame   0x00001884       0x48 d:/devkitPro/PAlib/lib\libpa9.a(PA_RTC.o)
 .debug_frame   0x000018cc       0x9c d:/devkitPro/PAlib/lib\libpa9.a(PA_Reco.o)
 .debug_frame   0x00001968      0x170 d:/devkitPro/PAlib/lib\libpa9.a(PA_Sprite.o)
 .debug_frame   0x00001ad8       0x78 d:/devkitPro/PAlib/lib\libpa9.a(PA_SpriteAnim.o)
 .debug_frame   0x00001b50       0x60 d:/devkitPro/PAlib/lib\libpa9.a(PA_Stuff.o)
 .debug_frame   0x00001bb0      0x108 d:/devkitPro/PAlib/lib\libpa9.a(PA_Text.o)
 .debug_frame   0x00001cb8      0x188 d:/devkitPro/PAlib/lib\libpa9.a(PA_Text8bit.o)
 .debug_frame   0x00001e40       0x78 d:/devkitPro/PAlib/lib\libpa9.a(PA_TextBits.o)
 .debug_frame   0x00001eb8      0x2a8 d:/devkitPro/PAlib/lib\libpa9.a(dgif_lib.o)
 .debug_frame   0x00002160       0x3c d:/devkitPro/PAlib/lib\libpa9.a(gif_err.o)
 .debug_frame   0x0000219c      0x178 d:/devkitPro/PAlib/lib\libpa9.a(gifalloc.o)
 .debug_frame   0x00002314      0x10c d:/devkitPro/PAlib/lib\libpa9.a(PA_16c.o)
 .debug_frame   0x00002420       0x44 d:/devkitPro/PAlib/lib\libpa9.a(PA_BgRot.o)
 .debug_frame   0x00002464       0x48 d:/devkitPro/PAlib/lib\libpa9.a(PA_Fifo.o)
 .debug_frame   0x000024ac      0x10c d:/devkitPro/PAlib/lib\libpa9.a(PA_Keyboard.o)
 .debug_frame   0x000025b8       0xd4 d:/devkitPro/PAlib/lib\libpa9.a(PA_PaletteEx.o)
 .debug_frame   0x0000268c       0x98 d:/devkitPro/libnds/lib\libnds9.a(keys.o)
 .debug_frame   0x00002724       0xb8 d:/devkitPro/libnds/lib\libnds9.a(system.o)
 .debug_frame   0x000027dc       0x48 d:/devkitPro/libnds/lib\libnds9.a(touch.o)
 .debug_frame   0x00002824       0xec d:/devkitPro/libnds/lib\libnds9.a(video.o)
 .debug_frame   0x00002910       0x30 d:/devkitPro/libnds/lib\libnds9.a(initSystem.o)
 .debug_frame   0x00002940      0x2bc d:/devkitPro/libnds/lib\libnds9.a(fifosystem.o)
 .debug_frame   0x00002bfc       0xc0 d:/devkitPro/libnds/lib\libnds9.a(interrupts.o)
 .debug_frame   0x00002cbc       0x28 d:/devkitPro/libnds/lib\libnds9.a(libnds_exit.o)

.debug_str      0x00000000     0x7093 load address 0x021573c4
 *(.debug_str)
 .debug_str     0x00000000      0xb5c utils.o
                                0xc97 (size before relaxing)
 .debug_str     0x00000b5c      0x108 bg_bang.o
                                0x141 (size before relaxing)
 .debug_str     0x00000c64       0x57 bg_boom.o
                                0x141 (size before relaxing)
 .debug_str     0x00000cbb       0x5c bg_desks.o
                                0x146 (size before relaxing)
 .debug_str     0x00000d17       0x5c bg_doors.o
                                0x146 (size before relaxing)
 .debug_str     0x00000d73       0x70 bg_duelStage.o
                                0x15a (size before relaxing)
 .debug_str     0x00000de3       0x5c bg_intro.o
                                0x146 (size before relaxing)
 .debug_str     0x00000e3f       0x6b bg_mainMenu.o
                                0x155 (size before relaxing)
 .debug_str     0x00000eaa       0x70 bg_mainStage.o
                                0x15a (size before relaxing)
 .debug_str     0x00000f1a       0x5c mainFont.o
                                0x146 (size before relaxing)
 .debug_str     0x00000f76      0x14d AnimationManager.o
                                0xcc5 (size before relaxing)
 .debug_str     0x000010c3      0x12a ConfigPerson.o
                                0xce0 (size before relaxing)
 .debug_str     0x000011ed      0x581 Door.o
                               0x1280 (size before relaxing)
 .debug_str     0x0000176e      0x42c DuelStage.o
                               0x1104 (size before relaxing)
 .debug_str     0x00001b9a      0x5e4 Game.o
                               0x1b2f (size before relaxing)
 .debug_str     0x0000217e       0x50 LevelManager.o
                                0xde5 (size before relaxing)
 .debug_str     0x000021ce       0xbf MainStage.o
                               0x15d2 (size before relaxing)
 .debug_str     0x0000228d       0x70 TextManager.o
                                0xd76 (size before relaxing)
 .debug_str     0x000022fd      0xc18 UIManager.o
                               0x18ee (size before relaxing)
 .debug_str     0x00002f15      0x1b2 main.o
                               0x1acd (size before relaxing)
 .debug_str     0x000030c7      0x3eb d:/devkitPro/PAlib/lib\libpa9.a(PA.o)
                               0x113a (size before relaxing)
 .debug_str     0x000034b2       0xcb d:/devkitPro/PAlib/lib\libpa9.a(PA_BgEasy.o)
                                0xd60 (size before relaxing)
 .debug_str     0x0000357d      0x181 d:/devkitPro/PAlib/lib\libpa9.a(PA_BgLargeMap.o)
                                0xdf5 (size before relaxing)
 .debug_str     0x000036fe      0x140 d:/devkitPro/PAlib/lib\libpa9.a(PA_BgTiles.o)
                                0xfbe (size before relaxing)
 .debug_str     0x0000383e      0x15f d:/devkitPro/PAlib/lib\libpa9.a(PA_Draw.o)
                                0xe85 (size before relaxing)
 .debug_str     0x0000399d      0x323 d:/devkitPro/PAlib/lib\libpa9.a(PA_Draw8bit.o)
                               0x107d (size before relaxing)
 .debug_str     0x00003cc0       0x5d d:/devkitPro/PAlib/lib\libpa9.a(PA_Error.o)
                                0xca6 (size before relaxing)
 .debug_str     0x00003d1d      0x2e4 d:/devkitPro/PAlib/lib\libpa9.a(PA_Gif.o)
                               0x1077 (size before relaxing)
 .debug_str     0x00004001      0x87b d:/devkitPro/PAlib/lib\libpa9.a(PA_Inits.o)
                               0x1826 (size before relaxing)
 .debug_str     0x0000487c       0x63 d:/devkitPro/PAlib/lib\libpa9.a(PA_Interrupt.o)
                                0xdea (size before relaxing)
 .debug_str     0x000048df       0x7f d:/devkitPro/PAlib/lib\libpa9.a(PA_Keys.o)
                                0xe36 (size before relaxing)
 .debug_str     0x0000495e       0x8f d:/devkitPro/PAlib/lib\libpa9.a(PA_Math.o)
                                0xd98 (size before relaxing)
 .debug_str     0x000049ed      0x117 d:/devkitPro/PAlib/lib\libpa9.a(PA_NewBg.o)
                                0xecd (size before relaxing)
 .debug_str     0x00004b04      0x2f5 d:/devkitPro/PAlib/lib\libpa9.a(PA_Palette.o)
                               0x1050 (size before relaxing)
 .debug_str     0x00004df9      0x1c2 d:/devkitPro/PAlib/lib\libpa9.a(PA_RTC.o)
                                0xf32 (size before relaxing)
 .debug_str     0x00004fbb      0x159 d:/devkitPro/PAlib/lib\libpa9.a(PA_Reco.o)
                                0xe99 (size before relaxing)
 .debug_str     0x00005114      0x189 d:/devkitPro/PAlib/lib\libpa9.a(PA_Sprite.o)
                                0xf48 (size before relaxing)
 .debug_str     0x0000529d       0x80 d:/devkitPro/PAlib/lib\libpa9.a(PA_SpriteAnim.o)
                                0xd44 (size before relaxing)
 .debug_str     0x0000531d      0x181 d:/devkitPro/PAlib/lib\libpa9.a(PA_Stuff.o)
                                0xdfd (size before relaxing)
 .debug_str     0x0000549e      0x149 d:/devkitPro/PAlib/lib\libpa9.a(PA_Text.o)
                                0xf2b (size before relaxing)
 .debug_str     0x000055e7      0x1b4 d:/devkitPro/PAlib/lib\libpa9.a(PA_Text8bit.o)
                                0xf20 (size before relaxing)
 .debug_str     0x0000579b      0x135 d:/devkitPro/PAlib/lib\libpa9.a(PA_TextBits.o)
                                0xf2a (size before relaxing)
 .debug_str     0x000058d0      0x2a5 d:/devkitPro/PAlib/lib\libpa9.a(dgif_lib.o)
                                0x96b (size before relaxing)
 .debug_str     0x00005b75       0x5b d:/devkitPro/PAlib/lib\libpa9.a(gif_err.o)
                                0x4a9 (size before relaxing)
 .debug_str     0x00005bd0      0x12d d:/devkitPro/PAlib/lib\libpa9.a(gifalloc.o)
                                0x367 (size before relaxing)
 .debug_str     0x00005cfd       0x43 d:/devkitPro/PAlib/lib\libpa9.a(PA_TiledFont.o)
                                0x16f (size before relaxing)
 .debug_str     0x00005d40       0x43 d:/devkitPro/PAlib/lib\libpa9.a(PA_BmpFont0.o)
                                0x16d (size before relaxing)
 .debug_str     0x00005d83       0x43 d:/devkitPro/PAlib/lib\libpa9.a(PA_BmpFont1.o)
                                0x16d (size before relaxing)
 .debug_str     0x00005dc6       0x43 d:/devkitPro/PAlib/lib\libpa9.a(PA_BmpFont2.o)
                                0x16d (size before relaxing)
 .debug_str     0x00005e09       0x43 d:/devkitPro/PAlib/lib\libpa9.a(PA_BmpFont3.o)
                                0x16d (size before relaxing)
 .debug_str     0x00005e4c       0x43 d:/devkitPro/PAlib/lib\libpa9.a(PA_BmpFont4.o)
                                0x16d (size before relaxing)
 .debug_str     0x00005e8f       0xe1 d:/devkitPro/PAlib/lib\libpa9.a(PA_16c.o)
                                0xf4b (size before relaxing)
 .debug_str     0x00005f70       0x59 d:/devkitPro/PAlib/lib\libpa9.a(PA_BgRot.o)
                                0xdbf (size before relaxing)
 .debug_str     0x00005fc9       0xd3 d:/devkitPro/PAlib/lib\libpa9.a(PA_Fifo.o)
                                0xe24 (size before relaxing)
 .debug_str     0x0000609c      0x115 d:/devkitPro/PAlib/lib\libpa9.a(PA_Keyboard.o)
                                0xe9e (size before relaxing)
 .debug_str     0x000061b1      0x250 d:/devkitPro/PAlib/lib\libpa9.a(PA_PaletteEx.o)
                               0x1125 (size before relaxing)
 .debug_str     0x00006401       0x35 d:/devkitPro/PAlib/lib\libpa9.a(keyboard.map.o)
                                 0x61 (size before relaxing)
 .debug_str     0x00006436       0x35 d:/devkitPro/PAlib/lib\libpa9.a(keyboard.pal.o)
                                 0x65 (size before relaxing)
 .debug_str     0x0000646b       0x35 d:/devkitPro/PAlib/lib\libpa9.a(keyboard.raw.o)
                                 0x5e (size before relaxing)
 .debug_str     0x000064a0      0x122 d:/devkitPro/libnds/lib\libnds9.a(keys.o)
                                0x289 (size before relaxing)
 .debug_str     0x000065c2      0x1a0 d:/devkitPro/libnds/lib\libnds9.a(system.o)
                                0x444 (size before relaxing)
 .debug_str     0x00006762       0x72 d:/devkitPro/libnds/lib\libnds9.a(touch.o)
                                0x1a4 (size before relaxing)
 .debug_str     0x000067d4      0x171 d:/devkitPro/libnds/lib\libnds9.a(video.o)
                                0xae5 (size before relaxing)
 .debug_str     0x00006945       0x7c d:/devkitPro/libnds/lib\libnds9.a(initSystem.o)
                                0x48a (size before relaxing)
 .debug_str     0x000069c1      0x52c d:/devkitPro/libnds/lib\libnds9.a(fifosystem.o)
                                0x728 (size before relaxing)
 .debug_str     0x00006eed      0x13d d:/devkitPro/libnds/lib\libnds9.a(interrupts.o)
                                0x325 (size before relaxing)
 .debug_str     0x0000702a       0x69 d:/devkitPro/libnds/lib\libnds9.a(libnds_exit.o)
                                 0x75 (size before relaxing)

.debug_loc      0x00000000     0xb4e9 load address 0x021573c4
 *(.debug_loc)
 .debug_loc     0x00000000       0xd2 utils.o
 .debug_loc     0x000000d2       0x9c AnimationManager.o
 .debug_loc     0x0000016e       0x72 ConfigPerson.o
 .debug_loc     0x000001e0      0x521 Door.o
 .debug_loc     0x00000701      0x74b DuelStage.o
 .debug_loc     0x00000e4c      0x49d Game.o
 .debug_loc     0x000012e9      0x18e LevelManager.o
 .debug_loc     0x00001477      0xbfd MainStage.o
 .debug_loc     0x00002074      0x3ca TextManager.o
 .debug_loc     0x0000243e      0x756 UIManager.o
 .debug_loc     0x00002b94      0x1d8 main.o
 .debug_loc     0x00002d6c       0xc1 d:/devkitPro/PAlib/lib\libpa9.a(PA.o)
 .debug_loc     0x00002e2d      0x39e d:/devkitPro/PAlib/lib\libpa9.a(PA_BgEasy.o)
 .debug_loc     0x000031cb      0xcd7 d:/devkitPro/PAlib/lib\libpa9.a(PA_BgLargeMap.o)
 .debug_loc     0x00003ea2      0x620 d:/devkitPro/PAlib/lib\libpa9.a(PA_BgTiles.o)
 .debug_loc     0x000044c2      0x33a d:/devkitPro/PAlib/lib\libpa9.a(PA_Draw.o)
 .debug_loc     0x000047fc      0x1cc d:/devkitPro/PAlib/lib\libpa9.a(PA_Draw8bit.o)
 .debug_loc     0x000049c8       0xe0 d:/devkitPro/PAlib/lib\libpa9.a(PA_Error.o)
 .debug_loc     0x00004aa8      0x41e d:/devkitPro/PAlib/lib\libpa9.a(PA_Gif.o)
 .debug_loc     0x00004ec6       0xf3 d:/devkitPro/PAlib/lib\libpa9.a(PA_Inits.o)
 .debug_loc     0x00004fb9       0x3e d:/devkitPro/PAlib/lib\libpa9.a(PA_Interrupt.o)
 .debug_loc     0x00004ff7       0x83 d:/devkitPro/PAlib/lib\libpa9.a(PA_Keys.o)
 .debug_loc     0x0000507a       0xf8 d:/devkitPro/PAlib/lib\libpa9.a(PA_Math.o)
 .debug_loc     0x00005172      0x374 d:/devkitPro/PAlib/lib\libpa9.a(PA_NewBg.o)
 .debug_loc     0x000054e6      0x1e5 d:/devkitPro/PAlib/lib\libpa9.a(PA_Palette.o)
 .debug_loc     0x000056cb       0x87 d:/devkitPro/PAlib/lib\libpa9.a(PA_RTC.o)
 .debug_loc     0x00005752      0x42f d:/devkitPro/PAlib/lib\libpa9.a(PA_Reco.o)
 .debug_loc     0x00005b81      0x4d2 d:/devkitPro/PAlib/lib\libpa9.a(PA_Sprite.o)
 .debug_loc     0x00006053      0x18a d:/devkitPro/PAlib/lib\libpa9.a(PA_SpriteAnim.o)
 .debug_loc     0x000061dd      0x169 d:/devkitPro/PAlib/lib\libpa9.a(PA_Stuff.o)
 .debug_loc     0x00006346      0x894 d:/devkitPro/PAlib/lib\libpa9.a(PA_Text.o)
 .debug_loc     0x00006bda      0xc52 d:/devkitPro/PAlib/lib\libpa9.a(PA_Text8bit.o)
 .debug_loc     0x0000782c      0x609 d:/devkitPro/PAlib/lib\libpa9.a(PA_TextBits.o)
 .debug_loc     0x00007e35     0x10a2 d:/devkitPro/PAlib/lib\libpa9.a(dgif_lib.o)
 .debug_loc     0x00008ed7       0x50 d:/devkitPro/PAlib/lib\libpa9.a(gif_err.o)
 .debug_loc     0x00008f27      0x6c1 d:/devkitPro/PAlib/lib\libpa9.a(gifalloc.o)
 .debug_loc     0x000095e8      0x578 d:/devkitPro/PAlib/lib\libpa9.a(PA_16c.o)
 .debug_loc     0x00009b60      0x1b6 d:/devkitPro/PAlib/lib\libpa9.a(PA_BgRot.o)
 .debug_loc     0x00009d16       0x7b d:/devkitPro/PAlib/lib\libpa9.a(PA_Fifo.o)
 .debug_loc     0x00009d91      0x406 d:/devkitPro/PAlib/lib\libpa9.a(PA_Keyboard.o)
 .debug_loc     0x0000a197      0x2ec d:/devkitPro/PAlib/lib\libpa9.a(PA_PaletteEx.o)
 .debug_loc     0x0000a483       0x51 d:/devkitPro/libnds/lib\libnds9.a(keys.o)
 .debug_loc     0x0000a4d4      0x177 d:/devkitPro/libnds/lib\libnds9.a(system.o)
 .debug_loc     0x0000a64b       0x3e d:/devkitPro/libnds/lib\libnds9.a(touch.o)
 .debug_loc     0x0000a689       0xb3 d:/devkitPro/libnds/lib\libnds9.a(video.o)
 .debug_loc     0x0000a73c       0x32 d:/devkitPro/libnds/lib\libnds9.a(initSystem.o)
 .debug_loc     0x0000a76e      0xc17 d:/devkitPro/libnds/lib\libnds9.a(fifosystem.o)
 .debug_loc     0x0000b385      0x145 d:/devkitPro/libnds/lib\libnds9.a(interrupts.o)
 .debug_loc     0x0000b4ca       0x1f d:/devkitPro/libnds/lib\libnds9.a(libnds_exit.o)

.debug_macinfo
 *(.debug_macinfo)

.debug_weaknames
 *(.debug_weaknames)

.debug_funcnames
 *(.debug_funcnames)

.debug_typenames
 *(.debug_typenames)

.debug_varnames
 *(.debug_varnames)

.stack          0x00080000        0x0 load address 0x021573c4
                0x00080000                _stack = .
 *(.stack)
LOAD d:/devkitpro/devkitarm/bin/../lib/gcc/arm-eabi/4.4.2/../../../../arm-eabi/lib/thumb/ds_arm9_crt0.o
LOAD d:/devkitpro/devkitarm/bin/../lib/gcc/arm-eabi/4.4.2/thumb/crti.o
LOAD d:/devkitpro/devkitarm/bin/../lib/gcc/arm-eabi/4.4.2/thumb/crtbegin.o
LOAD bg_bang_Map.o
LOAD bg_bang_Pal.o
LOAD bg_bang_Tiles.o
LOAD bg_boom_Map.o
LOAD bg_boom_Pal.o
LOAD bg_boom_Tiles.o
LOAD bg_desks_Map.o
LOAD bg_desks_Pal.o
LOAD bg_desks_Tiles.o
LOAD bg_doors_Map.o
LOAD bg_doors_Pal.o
LOAD bg_doors_Tiles.o
LOAD bg_duelStage_Map.o
LOAD bg_duelStage_Pal.o
LOAD bg_duelStage_Tiles.o
LOAD bg_intro_Map.o
LOAD bg_intro_Pal.o
LOAD bg_intro_Tiles.o
LOAD bg_mainMenu_Map.o
LOAD bg_mainMenu_Pal.o
LOAD bg_mainMenu_Tiles.o
LOAD bg_mainStage_Map.o
LOAD bg_mainStage_Pal.o
LOAD bg_mainStage_Tiles.o
LOAD mainFont_Map.o
LOAD mainFont_Pal.o
LOAD mainFont_Tiles.o
LOAD sp_BigDollar_Pal.o
LOAD sp_BigDollar_Sprite.o
LOAD sp_bandit1_1a_Sprite.o
LOAD sp_bandit1_1b_Sprite.o
LOAD sp_bandit1_Pal.o
LOAD sp_bandit1_die_Pal.o
LOAD sp_bandit1_die_bot_Sprite.o
LOAD sp_bandit1_die_top_Sprite.o
LOAD sp_bandit_duel1_Pal.o
LOAD sp_bandit_duel1_a_Sprite.o
LOAD sp_bandit_duel1_b_Sprite.o
LOAD sp_bandit_duel1_background_Sprite.o
LOAD sp_bandit_duel1_c_Sprite.o
LOAD sp_bandit_duel1_dying_Sprite.o
LOAD sp_bandit_duel2_Pal.o
LOAD sp_bandit_duel2_a_Sprite.o
LOAD sp_bandit_duel2_b_Sprite.o
LOAD sp_bandit_duel2_background_Sprite.o
LOAD sp_bandit_duel2_c_Sprite.o
LOAD sp_bandit_duel2_dying_Sprite.o
LOAD sp_bandit_duel3_Pal.o
LOAD sp_bandit_duel3_a_Sprite.o
LOAD sp_bandit_duel3_b_Sprite.o
LOAD sp_bandit_duel3_background_Sprite.o
LOAD sp_bandit_duel3_c_Sprite.o
LOAD sp_bandit_duel3_dying_Sprite.o
LOAD sp_dolar_Sprite.o
LOAD sp_dollar_Pal.o
LOAD sp_doorsClose_bot_Sprite.o
LOAD sp_doorsClose_top_Sprite.o
LOAD sp_doorsOpen_bot_Sprite.o
LOAD sp_doorsOpen_top_Sprite.o
LOAD sp_doors_Pal.o
LOAD sp_hatman_Pal.o
LOAD sp_hatman_bot_Sprite.o
LOAD sp_hatman_top_Sprite.o
LOAD sp_life_Pal.o
LOAD sp_life_Sprite.o
LOAD sp_man_1a_Sprite.o
LOAD sp_man_1b_Sprite.o
LOAD sp_man_Pal.o
LOAD sp_man_die_Pal.o
LOAD sp_man_dying_bot_Sprite.o
LOAD sp_man_dying_top_Sprite.o
LOAD sp_menuStart_Pal.o
LOAD sp_menu_credits_1_Sprite.o
LOAD sp_menu_credits_2_Sprite.o
LOAD sp_menu_hiscores_1_Sprite.o
LOAD sp_menu_hiscores_2_Sprite.o
LOAD sp_menu_hiscores_3_Sprite.o
LOAD sp_menu_start_1_Sprite.o
LOAD sp_menu_start_2_Sprite.o
LOAD sp_menu_start_3_Sprite.o
LOAD sp_redBar_1_Sprite.o
LOAD sp_redBar_2_Sprite.o
LOAD sp_redBar_Pal.o
LOAD sp_shoot_Sprite.o
LOAD sp_woman_1a_Sprite.o
LOAD sp_woman_1b_Sprite.o
LOAD sp_woman_Pal.o
LOAD sp_woman_die_Pal.o
LOAD sp_woman_dying_bot_Sprite.o
LOAD sp_woman_dying_top_Sprite.o
LOAD soundbank_bin.o
LOAD bg_Splash_developedBy_1.o
LOAD bg_Splash_developedBy_2.o
LOAD bg_palib_1.o
LOAD bg_palib_2.o
LOAD logo.o
LOAD logo_wifi.o
LOAD utils.o
LOAD bg_bang.o
LOAD bg_boom.o
LOAD bg_desks.o
LOAD bg_doors.o
LOAD bg_duelStage.o
LOAD bg_intro.o
LOAD bg_mainMenu.o
LOAD bg_mainStage.o
LOAD mainFont.o
LOAD AnimationManager.o
LOAD ConfigPerson.o
LOAD Door.o
LOAD DuelStage.o
LOAD Game.o
LOAD LevelManager.o
LOAD MainStage.o
LOAD TextManager.o
LOAD UIManager.o
LOAD main.o
LOAD d:/devkitPro/PAlib/lib\libpa9.a
LOAD d:/devkitPro/libnds/lib\libfat.a
LOAD d:/devkitPro/libnds/lib\libnds9.a
LOAD d:/devkitPro/libnds/lib\libdswifi9.a
LOAD d:/devkitPro/libnds/lib\libmm9.a
LOAD d:/devkitpro/devkitarm/bin/../lib/gcc/arm-eabi/4.4.2/../../../../arm-eabi/lib/thumb\libstdc++.a
LOAD d:/devkitpro/devkitarm/bin/../lib/gcc/arm-eabi/4.4.2/../../../../arm-eabi/lib/thumb\libm.a
START GROUP
LOAD d:/devkitpro/devkitarm/bin/../lib/gcc/arm-eabi/4.4.2/thumb\libgcc.a
LOAD d:/devkitpro/devkitarm/bin/../lib/gcc/arm-eabi/4.4.2/../../../../arm-eabi/lib/thumb\libg.a
LOAD d:/devkitpro/devkitarm/bin/../lib/gcc/arm-eabi/4.4.2/../../../../arm-eabi/lib/thumb\libc.a
LOAD d:/devkitpro/devkitarm/bin/../lib/gcc/arm-eabi/4.4.2/../../../../arm-eabi/lib/thumb\libsysbase.a
END GROUP
LOAD d:/devkitpro/devkitarm/bin/../lib/gcc/arm-eabi/4.4.2/thumb/crtend.o
LOAD d:/devkitpro/devkitarm/bin/../lib/gcc/arm-eabi/4.4.2/thumb/crtn.o
OUTPUT(build.elf elf32-littlearm)

.debug_ranges   0x00000000     0x44d0 load address 0x021573c4
 .debug_ranges  0x00000000       0x20 utils.o
 .debug_ranges  0x00000020       0x38 AnimationManager.o
 .debug_ranges  0x00000058      0x300 Door.o
 .debug_ranges  0x00000358      0x1f0 DuelStage.o
 .debug_ranges  0x00000548       0xf0 Game.o
 .debug_ranges  0x00000638       0x60 LevelManager.o
 .debug_ranges  0x00000698      0x688 MainStage.o
 .debug_ranges  0x00000d20       0xa8 TextManager.o
 .debug_ranges  0x00000dc8     0x1240 UIManager.o
 .debug_ranges  0x00002008       0xc8 main.o
 .debug_ranges  0x000020d0      0x120 d:/devkitPro/PAlib/lib\libpa9.a(PA_BgEasy.o)
 .debug_ranges  0x000021f0      0x860 d:/devkitPro/PAlib/lib\libpa9.a(PA_BgLargeMap.o)
 .debug_ranges  0x00002a50       0x80 d:/devkitPro/PAlib/lib\libpa9.a(PA_BgTiles.o)
 .debug_ranges  0x00002ad0       0x50 d:/devkitPro/PAlib/lib\libpa9.a(PA_Draw.o)
 .debug_ranges  0x00002b20       0x38 d:/devkitPro/PAlib/lib\libpa9.a(PA_Draw8bit.o)
 .debug_ranges  0x00002b58       0x38 d:/devkitPro/PAlib/lib\libpa9.a(PA_Gif.o)
 .debug_ranges  0x00002b90      0x120 d:/devkitPro/PAlib/lib\libpa9.a(PA_Inits.o)
 .debug_ranges  0x00002cb0      0x100 d:/devkitPro/PAlib/lib\libpa9.a(PA_Math.o)
 .debug_ranges  0x00002db0      0x2a0 d:/devkitPro/PAlib/lib\libpa9.a(PA_NewBg.o)
 .debug_ranges  0x00003050       0x40 d:/devkitPro/PAlib/lib\libpa9.a(PA_Palette.o)
 .debug_ranges  0x00003090       0xb8 d:/devkitPro/PAlib/lib\libpa9.a(PA_Reco.o)
 .debug_ranges  0x00003148       0x68 d:/devkitPro/PAlib/lib\libpa9.a(PA_Sprite.o)
 .debug_ranges  0x000031b0       0xc0 d:/devkitPro/PAlib/lib\libpa9.a(PA_SpriteAnim.o)
 .debug_ranges  0x00003270       0x68 d:/devkitPro/PAlib/lib\libpa9.a(PA_Text.o)
 .debug_ranges  0x000032d8      0x9f0 d:/devkitPro/PAlib/lib\libpa9.a(PA_Text8bit.o)
 .debug_ranges  0x00003cc8       0x48 d:/devkitPro/PAlib/lib\libpa9.a(PA_TextBits.o)
 .debug_ranges  0x00003d10      0x100 d:/devkitPro/PAlib/lib\libpa9.a(dgif_lib.o)
 .debug_ranges  0x00003e10       0x18 d:/devkitPro/PAlib/lib\libpa9.a(gifalloc.o)
 .debug_ranges  0x00003e28      0x110 d:/devkitPro/PAlib/lib\libpa9.a(PA_16c.o)
 .debug_ranges  0x00003f38      0x168 d:/devkitPro/PAlib/lib\libpa9.a(PA_Keyboard.o)
 .debug_ranges  0x000040a0       0x18 d:/devkitPro/libnds/lib\libnds9.a(touch.o)
 .debug_ranges  0x000040b8      0x418 d:/devkitPro/libnds/lib\libnds9.a(fifosystem.o)
